(dp0
S'y'
p1
(lp2
F0.03206653210896397
aF0.03208832140133065
aF0.03209310477012743
aF0.032097891864170044
aF0.03210268283668187
aF0.036068279579597115
aF0.037275154088566284
aF0.03744496389818526
aF0.036582528493705566
aF0.03624798202255654
aF0.036194830660581115
aF0.035946379831554146
aF0.03594529548120236
aF0.035872585375088736
aF0.03613527208505786
aF0.036173792647464384
aF0.036222028345755594
aF0.03618826652416805
aF0.03643215594603659
aF0.036557751894752646
aF0.035663776286784396
aF0.03540451438761737
aF0.03611194285801199
aF0.03617333117134393
aF0.03746776174426482
aF0.038005317643983
aF0.038476340338339174
aF0.0387252850418396
aF0.040686297461265966
aF0.04173629329061092
aF0.043259182528274084
aF0.04260118662431066
aF0.04301307532026925
aF0.043367459017649254
aF0.04475492772305688
aF0.04562036941166815
aF0.0411147628723995
aF0.040846576946182364
aF0.04014707774230926
aF0.04081671783326156
aF0.04062199008041083
aF0.04220787278966506
aF0.04376587866786821
aF0.04464714654678478
aF0.04576591079769449
aF0.04673385201381147
aF0.044832943981807455
aF0.044839544352148986
aF0.04163021540281922
aF0.04172169699524142
aF0.04380306351735261
aF0.044399128396024945
aF0.04787022884539571
aF0.047460826728207645
aF0.04809835045051611
aF0.050183270019873466
aF0.051353412756934114
aF0.04847683836039424
aF0.04582716988892416
aF0.0452053983129648
aF0.04428998753236038
aF0.046668047857122585
aF0.04743025371138035
aF0.04790767905765758
aF0.0469417343604647
aF0.04675737048886219
aF0.04735332466010975
aF0.04760230424289735
aF0.046821340462987554
aF-0.010563289591667024
aF-0.011411833486679707
aF-0.011516403434289668
aF-0.011031206921765263
aF-0.009145564779252713
aF-0.008179683446971425
aF-0.008859197505978661
aF-0.007589530768077946
aF-0.006854636388369945
aF-0.009351338332162451
aF-0.009933270827536034
aF-0.01036167310074207
aF-0.007783805297094354
aF-0.007740344457058568
aF-0.007393927497010538
aF-0.008342191933851384
aF-0.007070369674451515
aF-0.0065669404762265515
aF-0.006062846883975792
aF-0.006020218544670358
aF-0.008677533998782544
aF-0.008473211322142155
aF-0.00874401880005557
aF-0.009881719391668209
aF-0.010470290912735658
aF-0.004417950893242234
aF-0.0032563000628873517
aF-0.001941718991584046
aF0.00018985811368688044
aF-0.0006559294197285293
aF-9.118081978332082e-05
aF-0.003125050249242506
aF-0.003914909417346846
aF-0.0070739483093217315
aF-0.008674043716793006
aF-0.006976249153258646
aF-0.006045837936165338
aF-0.005906214319890857
aF-0.002816241355759197
aF-0.0015957062991640847
aF-0.0017460754983453508
aF-0.0003776548405980129
aF0.0026975613087913963
aF0.004595380016436279
aF0.001235068106048065
aF-0.0018769352119759608
aF-0.0032029484673459785
aF-0.0029306096913016555
aF-0.0037252954595043686
aF-0.0034709838687456696
aF-0.0037414094024671163
aF-0.004094559764922928
aF-0.0006950902650315338
aF0.003305308678339669
aF0.00556450275112047
aF0.0035697769218865083
aF0.0023662448955945325
aF0.0021640615431598453
aF0.0039702562787654605
aF0.005315467656087369
aF0.00560344006642155
aF0.006166347988662141
aF0.005890160498360553
aF0.004927753646081362
aF0.004605896837008822
aF0.0031101045550133433
aF0.0022081623784065973
aF0.0013800456102549818
aF0.0029372173138370594
aF0.0029841336335876267
aF0.0031634975104023744
aF0.0033243345764563392
aF0.003439324297041191
aF0.0039036091534421224
aF0.007406766508894963
aF0.009048671688910714
aF0.009175276827284307
aF0.006900199763623799
aF0.0063341200456878965
aF0.007381224451361912
aF0.007411210524836065
aF0.008943306610295493
aF0.005988119620821936
aF0.00857585426309107
aF0.009432286890934005
aF0.008719779260387917
aF0.00874269058814997
aF0.008893390924517353
aF0.009985267600224695
aF0.010483277563947707
aF0.010976285271870168
aF0.010940747726817163
aF0.011241613528833794
aF0.010882032480332982
aF0.011738587713212872
aF0.010409793183939198
aF0.010123343123260214
aF0.012995514600777802
aF0.013138510859416308
aF0.013641315802401216
aF0.009544637394150651
aF0.009530750538726929
aF0.014493263273189422
aF0.016519717244696752
aF0.015432077877300943
aF0.017742155370220225
aF0.016705513204893135
aF0.016976004704728292
aF0.016177985733251687
aF0.014040902394235666
aF0.013066586894116827
aF0.01663708246392634
aF0.018244273820591128
aF0.01911370763857914
aF0.01668232490423971
aF0.01609440385789776
aF0.015711862658713105
aF0.016616981871773073
aF0.018545840075675946
aF0.01954018304628105
aF0.020398986054374152
aF0.02147565607314758
aF0.02038801135015425
aF0.020414461678889412
aF0.019021979160148278
aF0.021759990094803866
aF0.022614204739143773
aF0.021867768269116655
aF0.022113045030977274
aF0.021190061232920082
aF0.02089650539096813
aF0.022842328526620048
aF0.02213244993816285
aF0.022124116695168478
aF0.02347335447921839
aF0.02219650106432508
aF0.021950829359789537
aF0.022417347627134848
aF0.02122024369141956
aF0.02077203197251387
aF0.02570055196261467
aF0.026774136834098516
aF0.028449746283871202
aF0.02551661158344276
aF0.025880091852724718
aF0.025838089340280312
aF0.026787642658944733
aF0.02713040034041425
aF0.027314418258396533
aF0.026461382603051004
aF0.024637921943691438
aF0.02368537877707161
aF0.023991465418744806
aF0.023490911480748194
aF0.027209101491427773
aF0.028243196592670855
aF0.029915616006470053
aF0.031082321876609503
aF0.030808163216484663
aF0.031450636505233776
aF0.028705809475759625
aF0.028263795405578884
aF0.028249572238613435
aF0.03037695196999285
aF0.03547511855314012
aF0.038252240149800804
aF0.03594901715432011
aF0.03686035234889823
aF0.03427910187406294
aF0.03327968707374748
aF0.03274435079049429
aF0.03184175101965986
aF0.03249916111093987
aF0.03232762653966939
aF0.03572780397140568
aF0.03765003905523251
aF0.039019520536518054
aF0.035334337440473235
aF0.03758097490986412
aF0.03834075725327865
aF0.036180992977805276
aF0.03595034378312767
aF0.032229160851128064
aF0.03625698420488929
aF0.03272748347902171
aF0.031756512070174325
aF0.03077866437851784
aF0.035959106083362335
aF0.03663789090930966
aF0.03910118590321554
aF0.04055132237376255
aF0.041950601710138535
aF0.04597509787842374
aF0.044906744355681844
aF0.045295726635110306
aF0.04598702854914283
aF0.03984194458508791
aF0.03674952316929103
aF0.034454883111003615
aF0.03275442208722276
aF0.035067165711543835
aF0.03700220238247501
aF0.039765860964979693
aF0.04136455664887892
aF0.040122236367853115
aF0.04166897784869336
aF0.042651621279858914
aF0.044048112409850626
aF0.04516323414758808
aF0.04447808856694341
aF0.036575004109144216
aF0.037325318666174584
aF0.03609476621314098
aF0.042700233588580494
aF0.04782617080487386
aF0.04772920892014201
aF0.04934466237531099
aF0.04567787406532961
aF0.04308310442350438
aF0.04183408648195014
aF0.04283486500041919
aF0.044667653652032735
aF0.04516942273844626
aF0.04649942799185197
aF0.0426309018480123
aF0.04154235334643125
aF0.04060347680456727
aF0.04097824078667539
aF0.04409655883441363
aF0.045333473018616705
aF0.05002850094160588
aF0.052496259305251175
aF0.050103012874686687
aF0.048228781400101756
aF0.048068278474235726
aF0.04929451023179382
aF0.04634371198177209
aF0.04567187111743479
aF0.04483265157870886
aF0.043216483259288424
aF0.04518473097981668
aF0.04535501564465713
aF0.04413609854986064
aF0.04719945933045758
aF0.04846174542275697
aF0.04925567109309639
aF0.04880929129531289
aF0.04925813613498525
aF0.046378362940070555
aF0.04779736248243635
aF0.04854238280501122
aF0.04896994090775486
aF0.05017604108028548
aF0.050882521057014046
aF0.05153208265124301
aF0.051245322934176746
aF0.05148329166144261
aF0.048622002561021754
aF0.053188012479459285
aF0.053856704829435637
aF0.05488813655509561
aF0.05644976041628674
aF0.05657227951023269
aF0.05727758408704636
aF0.06266200585051168
aF0.06600894947509348
aF0.06878337526287381
aF0.07095009356286808
aF0.07342146604973723
aF0.07767836691587487
aF0.08094136548981287
aF0.087137229861009
aF0.09143472175661577
aF0.09133206741222191
aF0.09434178779003222
aF0.09243921196930313
aF0.09974764518446949
aF0.10810429494998125
aF0.11572238994859213
aF0.12222451994097722
aF0.1262325651591898
aF0.125545729437475
aF0.12496720218957569
aF0.12628805580343117
aF0.1313773730113087
aF0.13272178466944912
aF0.13486400726380898
aF0.14715009830983777
aF0.1583719943376446
aF0.1603100569757443
aF0.16548927371209643
aF0.16691447621216843
aF0.17289832580220715
aF0.1806852598761105
aF0.18666292923339795
aF0.1923567059421344
aF0.19830937962203649
aF0.20453609549119417
aF0.20730437393139328
aF0.21224547527970494
aF0.22071934650647446
aF0.2266813055174824
aF0.23428973687163854
aF0.24260673673365954
aF0.25362296486373703
aF0.2623807740395374
aF0.2711516646224553
aF0.2728534455936966
aF0.2835357966610649
aF0.2918658970083393
aF0.3013634189508122
aF0.31430169724096657
aF0.324800911426238
aF0.33418570834420414
aF0.344271537904283
aF0.3493637842769862
aF0.3600208673308019
aF0.3693618183646888
aF0.37628278099374196
aF0.38481206307346466
aF0.39781150876809407
aF0.4076504572830361
aF0.42168472406379814
aF0.43800214996131354
aF0.4510378387644211
aF0.46404857543666783
aF0.4761907394205636
aF0.488850856245263
aF0.49915087993889723
aF0.5133107600153155
aF0.5262401604818336
aF0.5391892524922808
aF0.5478111589798316
aF0.5595607089250882
aF0.5748244593720926
aF0.5928498681939702
aF0.6095807519226604
aF0.6252902928885764
aF0.6431926969768984
aF0.6569133389985948
aF0.6716585819275234
aF0.6860881180423772
aF0.6991547852518467
aF0.7108536611272267
aF0.7239895783236338
aF0.7368372582224914
aF0.7498683871112638
aF0.7663947154018197
aF0.7847278499484256
aF0.8006584940786972
aF0.8170515577091482
aF0.8331128130997255
aF0.8405716334952463
aF0.8613974204344291
aF0.8767204049190144
aF0.8984379596610089
aF0.9168577145016922
aF0.937562074250896
aF0.9567335397234346
aF0.9790581042412941
aF0.9905071247785814
aF1.0051595855481499
aF1.021277848703059
aF1.0416561846232515
aF1.0593612995554
aF1.0704217239607008
aF1.0863738400063316
aF1.102169262844006
aF1.1178838726494609
aF1.1366280880622424
aF1.1536791678535192
aF1.1700407594524223
aF1.1868189594292453
aF1.2046191438877194
aF1.221750212415416
aF1.236035888085663
aF1.262730125057649
aF1.2832642985982405
aF1.2983227305863267
aF1.317019035567647
aF1.3288712893326218
aF1.3453291197268311
aF1.3619282460498503
aF1.377186844982354
aF1.3922865351479237
aF1.4074550758864681
aF1.423008867471087
aF1.442215788875297
aF1.4549274636329164
aF1.4701701573443091
aF1.4926797279777848
aF1.5156722090945633
aF1.5356098842457506
aF1.5471240947003402
aF1.559624802979298
aF1.5747616945742688
aF1.597183077163561
aF1.6151282047019988
aF1.6289961781509037
aF1.648206045780709
aF1.6659332668792548
aF1.6802031761233687
aF1.69662690697161
aF1.7182216733802242
aF1.7364318218158523
aF1.754644773397774
aF1.6814658407410712
aF1.7095961400076898
aF1.7303632717902233
aF1.750992736979966
aF1.7731600052022614
aF1.7939176509969226
aF1.814880635834402
aF1.8354725856118348
aF1.8511461475471371
aF1.8698285034560325
aF1.892981928497874
aF1.9134020146759037
aF1.925948745542919
aF1.9437433830865016
aF1.9672191604110059
aF1.9834003003874434
aF2.0016720218036186
aF2.0199433039398382
aF2.025957264680854
aF2.0411358648838607
aF2.0725839458154076
aF2.096256493615857
aF2.116471603541002
aF2.137261599160973
aF2.155626785574533
aF2.169054704779528
aF2.186216525953949
aF2.202592173364973
aF2.2174771879595347
aF2.233361680450564
aF2.2502834787829604
aF2.2665828446361345
aF2.287597228153788
aF2.3020582574131594
aF2.3178151505166946
aF2.330683311140764
aF2.345074835345264
aF2.359857366531526
aF2.3829690534100614
aF2.401339115932518
aF2.417745731259497
aF2.434841375536949
aF2.4499909157621387
aF2.466323611828874
aF2.4794712498962217
aF2.4987793243255716
aF2.5157322599223466
aF2.533738034991088
aF2.54606388613165
aF2.561205168176471
aF2.5754784258573578
aF2.5900315545803756
aF2.6055012099401584
aF2.6221475580337814
aF2.6377562192356385
aF2.6541681889721596
aF2.669734374981455
aF2.6854844126942554
aF2.6958979322417527
aF2.7096044474901912
aF2.7261751721174843
aF2.7420290035762083
aF2.7569003786704904
aF2.771667932212151
aF2.786622649853872
aF2.8044276887248234
aF2.8194231449032974
aF2.834953263250034
aF2.836787811343935
aF2.8477314312685733
aF2.8686723060027277
aF2.883053942731048
aF2.9029858087838414
aF2.9165191810443183
aF2.931606864402985
aF2.943221348199016
aF2.9545260284218076
aF2.966338254937006
aF2.978175859757529
aF2.9904210083425267
aF3.0060037361653067
aF3.0215176647755464
aF3.0358470923781167
aF3.0497707481826026
aF3.063929779089987
aF3.0735094805121124
aF3.086316168291908
aF3.1005483989009153
aF3.113778830597757
aF3.126670449725377
aF3.143518353134454
aF3.15816794252673
aF3.1672264217622565
aF3.1799274358154324
aF3.1853499634303137
aF3.1958349366135885
aF3.2062605588999693
aF3.2167134483679947
aF3.234650325088076
aF3.2503474718330008
aF3.2636047748438877
aF3.2749667959854074
aF3.2879076372663887
aF3.295832689911435
aF3.306368806575799
aF3.316441800622019
aF3.3250875036121372
aF3.3349916632927403
aF3.3497505610372786
aF3.3565370537715316
aF3.366109902417519
aF3.373853562148776
aF3.3827178503396556
aF3.3915874939208703
aF3.4046605748308325
aF3.414566907087957
aF3.427762828432635
aF3.438961843157987
aF3.4491517253599064
aF3.460005245937767
aF3.4673282955666833
aF3.4787063288758806
aF3.489103138559011
aF3.4957012432646444
aF3.5048192278929546
aF3.507734794628282
aF3.514994410330115
aF3.528165887220925
aF3.537325031516112
aF3.5464983967957155
aF3.556635479986794
aF3.5661753015625086
aF3.5757005165157705
aF3.5872567937769566
aF3.5877028908268125
aF3.594813110167339
aF3.6010910476348985
aF3.613834693317623
aF3.6229167652174286
aF3.6342177738442563
aF3.642705179342545
aF3.6519451144423183
aF3.6597945268256304
aF3.6684948542387428
aF3.6735290312412916
aF3.682297388258057
aF3.690352605866028
aF3.696396088339563
aF3.7037015026222817
aF3.706097874468085
aF3.7126292164022017
aF3.718676969469598
aF3.72382086511393
aF3.7295093270573916
aF3.737706505525452
aF3.7443299406595085
aF3.7486586642950486
aF3.754511862512588
aF3.76106492183085
aF3.7671322304761223
aF3.7759293727764742
aF3.7795744862776095
aF3.784698955567305
aF3.7901461854224467
aF3.791886908728078
aF3.7959496264662405
aF3.79856977041398
aF3.80274715314138
aF3.806572114657238
aF3.8137824165329306
aF3.816982807244275
aF3.8212033881721763
aF3.8240945297600692
aF3.828661830259588
aF3.832679035029057
aF3.8374157403530886
aF3.8417540761545577
aF3.8454936691361357
aF3.844853646930466
aF3.846798520632733
aF3.8456240605959007
aF3.846367083384659
aF3.8469998784053283
aF3.8468434400530276
aF3.847189756006693
aF3.84659916264789
aF3.8466199445326312
aF3.846640752577045
aF3.8502082039340513
aF3.8494629730309566
aF3.846200978151193
aF3.842756887413532
aF3.8404592381862908
aF3.8400858778055773
aF3.843560037499181
aF3.844122957690869
aF3.8398459012234567
aF3.8387901621593357
aF3.8294717276130554
aF3.826428652313034
aF3.8194224076566456
aF3.8141435877018366
aF3.813884197227616
aF3.8104076620816762
aF3.8054196205127555
aF3.8014218832192808
aF3.7914810319063537
aF3.783185049129156
aF3.777820308181271
aF3.7716163351323253
aF3.7739571556481333
aF3.770192727443116
aF3.7668066015632333
aF3.7659325538880593
aF3.759783896743868
aF3.754099971271951
aF3.749247927204761
aF3.7441850100182603
aF3.737874836813731
aF3.732352345865911
aF3.7291786836189615
aF3.724435588017547
aF3.7222364443338796
aF3.7140114575488123
aF3.7084467479788006
aF3.701687710598678
aF3.695716192043489
aF3.6912232847613575
aF3.6857495046279674
aF3.682969468997782
aF3.6741445793703735
aF3.665462275961901
aF3.658233440068627
aF3.654272757109625
aF3.648095122217448
aF3.6430563157471925
aF3.637682122300351
aF3.622398778198962
aF3.6152622211069185
aF3.607032026385643
aF3.598839627301573
aF3.5994342403905066
aF3.5942542751032476
aF3.587464610641366
aF3.577749943037081
aF3.5705067838303655
aF3.56007356526539
aF3.553245995412322
aF3.545555401512668
aF3.5461091485219063
aF3.5414598327404714
aF3.5365852613449755
aF3.5303072332231866
aF3.524981742327658
aF3.5128025617905956
aF3.4996046066612063
aF3.4912210687564276
aF3.48855605323251
aF3.4826124669320793
aF3.4757023708912387
aF3.4735343078111534
aF3.4690083184475284
aF3.4644807529173733
aF3.4598174513731825
aF3.4544135355407772
aF3.443948096246714
aF3.4372682595732447
aF3.427358766778811
aF3.4282394684034316
aF3.4239327368025076
aF3.4195278056339697
aF3.415188456052366
aF3.4061513447512946
aF3.403149038633314
aF3.398384771927302
aF3.391802247035774
aF3.3877581610677336
aF3.389253552753793
aF3.386738996955754
aF3.3838602903169392
aF3.375910727495503
aF3.369569561920672
aF3.3639774175722157
aF3.352950272406652
aF3.353473572791202
aF3.3533140627518345
aF3.350973954333145
aF3.3463054744103182
aF3.3447313947008377
aF3.3421957342968005
aF3.341059935801419
aF3.338978596945344
aF3.335388680391824
aF3.3330429928246725
aF3.3305472888129777
aF3.323609043727765
aF3.321490038082872
aF3.3211077444183337
aF3.319030153687311
aF3.311923524336149
aF3.3040847930706168
aF3.304916818719702
aF3.303855657553608
aF3.3019353470390174
aF3.3047037421771455
aF3.3045986093198936
aF3.304428024473632
aF3.2980195691125727
aF3.292190417899795
aF3.290980189055682
aF3.288454848279579
aF3.291397586057149
aF3.2903909506876063
aF3.2896776522821742
aF3.2889638128557075
aF3.284093845222346
aF3.2829479822572165
aF3.2814088223613
aF3.279729171169785
aF3.2835849160833774
aF3.2842525557567748
aF3.2804304052078983
aF3.279382957749952
aF3.2784761442834416
aF3.2798708163102384
aF3.280312731479686
aF3.2804611288788443
aF3.2783682312201217
aF3.2803585975509884
aF3.2808449134917965
aF3.2805864267203915
aF3.282718195836815
aF3.2827564451701248
aF3.283296215872253
aF3.284305372229624
aF3.2892163357389954
aF3.288800499159655
aF3.2898444741390813
aF3.288266282096404
aF3.2924033511386797
aF3.2942621752549632
aF3.2946398823800664
aF3.299987783852976
aF3.3012101669233767
aF3.303344510665309
aF3.302538719215597
aF3.302989388571798
aF3.3038189538661222
aF3.306065547206494
aF3.3102177028618245
aF3.311023426966192
aF3.312721354957821
aF3.317442472275297
aF3.3207438635439495
aF3.3236605536531534
aF3.3259344388809584
aF3.3286584645331048
aF3.3289428610337426
aF3.3310170828145544
aF3.3330927812552145
aF3.3402070015759184
aF3.342396733087599
aF3.3427073637466633
aF3.348724602839443
aF3.35258654954338
aF3.356101589978976
aF3.3598369340945853
aF3.3657137276182274
aF3.369755891195461
aF3.3740033202426165
aF3.3803520640318125
aF3.386184138701783
aF3.3915494148457133
aF3.396916837387719
aF3.4022409090734764
aF3.4061283538109266
aF3.4110220622822
aF3.4142531475667153
aF3.4226732134995825
aF3.4288085011650673
aF3.433133466897678
aF3.438584456355569
aF3.4482018420682046
aF3.4526539947675055
aF3.4584827197475017
aF3.4655595890782265
aF3.471793026498655
aF3.4726816675511847
aF3.4787896437304697
aF3.4840058929849063
aF3.4910419473865746
aF3.4980767461020545
aF3.5044220898571967
aF3.5101937325117714
aF3.5155464088618347
aF3.5213389975803158
aF3.527314169639397
aF3.533168716000838
aF3.5402562387668093
aF3.5450969791499944
aF3.556067088845535
aF3.557606728725709
aF3.5624648580960865
aF3.5653974248968656
aF3.5785790474940207
aF3.5811637111408237
aF3.5865619702488916
aF3.5923735765873688
aF3.59824910306414
aF3.603952244136355
aF3.6150180585090315
aF3.6226782126858725
aF3.6230420978991784
aF3.6270120630579
aF3.633058910195009
aF3.6413272252140114
aF3.647952567463091
aF3.653558347014583
aF3.6547803200156053
aF3.658863287776395
aF3.6677024127948834
aF3.6735709776902885
aF3.681511989520625
aF3.687884272673155
aF3.6938165976025243
aF3.702097377874181
aF3.7091699119205166
aF3.7134498946487042
aF3.7174360504697113
aF3.722659655609731
aF3.7278869061262254
aF3.7406772905193706
aF3.7479800810422286
aF3.7561563588617948
aF3.7588686388441452
aF3.764559419159743
aF3.77011448329317
aF3.77821711609352
aF3.7836754754706097
aF3.7897626765012133
aF3.7880731195862496
aF3.79147295630536
aF3.7949911491192663
aF3.8005312209134545
aF3.8039373373292675
aF3.8104363365836273
aF3.8154712268868134
aF3.8171358064436247
aF3.816727685397632
aF3.81883055224622
aF3.82365005933398
aF3.8278304092363964
aF3.831279027305401
aF3.834753999754703
aF3.84118624608732
aF3.8438578767426606
aF3.8481530339739187
aF3.8521841708531506
aF3.8517137820363256
aF3.851287797453985
aF3.8496070536689007
aF3.8495057876284178
aF3.856368491516893
aF3.8587475388130303
aF3.8590125222989298
aF3.8571062003993286
aF3.8576492603082237
aF3.8561951228200324
aF3.860403408201249
aF3.861808382558856
aF3.8641909388211952
aF3.8577068844691205
aF3.8585034811400716
aF3.858213092103324
aF3.8594975620649192
aF3.857848952192067
aF3.8573177506366205
aF3.851684011061554
aF3.847127314079433
aF3.843901250492027
aF3.83818741064413
aF3.8312662202702725
aF3.826275618494301
aF3.819380091570983
aF3.813695020128927
aF3.8096940184643913
aF3.8006699210816115
aF3.794016705583492
aF3.7925972226547717
aF3.7876535544128744
aF3.782487947655081
aF3.7774804342807573
aF3.7622062366403326
aF3.7552477184079787
aF3.747477315260778
aF3.7397133107538574
aF3.733345586684025
aF3.7259225098125155
aF3.721153838446951
aF3.714701703150635
aF3.7082755876618383
aF3.7018341769986933
aF3.699466644328396
aF3.6942439589646066
aF3.67871523795328
aF3.6711730883621154
aF3.6629824017899097
aF3.654788488835716
aF3.6442244092529985
aF3.6316082063344615
aF3.626067976902234
aF3.618334589396119
aF3.6061600116610766
aF3.59643755592611
aF3.5819972644077382
aF3.5704749446002926
aF3.5585163320750457
aF3.546735858221748
aF3.535044199353378
aF3.524407601151929
aF3.514412553147605
aF3.503630007753283
aF3.495181977308138
aF3.4866621411535377
aF3.4771764601845176
aF3.4717245063514435
aF3.462778015173407
aF3.4473972002677673
aF3.4355825521405867
aF3.4273263932713496
aF3.416835780913414
aF3.405544353966902
aF3.3952593990612425
aF3.3897092849779216
aF3.381227976482114
aF3.3690256863992456
aF3.358335964171143
aF3.348166071675863
aF3.3379880223558245
aF3.3287062991578025
aF3.3188643233854176
aF3.306509192470659
aF3.296640684759908
aF3.286257498394636
aF3.2747000094327205
aF3.263893536324797
aF3.2604079635258474
aF3.248457289707237
aF3.2334925868896773
aF3.221176784184554
aF3.211646437152918
aF3.2056960493653612
aF3.196616038779047
aF3.183600332165009
aF3.1758562044743313
aF3.1664756774781457
aF3.1526817248943817
aF3.14221416175224
aF3.1324069216151886
aF3.114762815502127
aF3.101602269920375
aF3.092316314986316
aF3.0845983033392375
aF3.074515969250485
aF3.0673437439560494
aF3.0583394428186392
aF3.046728307568986
aF3.0368660423849403
aF3.0204249753577366
aF3.001112234448812
aF2.99653351274423
aF2.9862310258413416
aF2.975929404404474
aF2.964757118379404
aF2.9553826552196303
aF2.9452256127293888
aF2.935358138845553
aF2.9209839361505794
aF2.9118094049986447
aF2.900932734239231
aF2.8901810782816044
aF2.8780280953866813
aF2.8636892920334427
aF2.8549556281821604
aF2.8442636546135946
aF2.8335766202132646
aF2.834329178386253
aF2.8234117562952075
aF2.8080222231833676
aF2.7995878686927087
aF2.7895298812896843
aF2.780856812507015
aF2.771307393620749
aF2.766285831904797
aF2.753965745136541
aF2.7409368436099237
aF2.7295249164281357
aF2.7231753903627554
aF2.7135615148646095
aF2.694314631454665
aF2.6843641885768905
aF2.6712385532592733
aF2.659058496418926
aF2.659004873901544
aF2.6503200413745667
aF2.64470841822207
aF2.6371110374389564
aF2.6274211087544317
aF2.6191298942074805
aF2.6020598553484877
aF2.590566125861548
aF2.5747612263039654
aF2.5737122789195133
aF2.565107836620365
aF2.5564880725278076
aF2.5482508629888794
aF2.5358343493141895
aF2.5260192755964748
aF2.5147192520646064
aF2.5044620182058472
aF2.486805651765005
aF2.474306016533168
aF2.4650037177234703
aF2.4578029612689685
aF2.447713756260777
aF2.4367233657028864
aF2.4263271199252996
aF2.4203816893812076
aF2.4131382348922066
aF2.4047590827552314
aF2.3952232228325627
aF2.386451142089221
aF2.385759665426466
aF2.3796021981959457
aF2.373299478733716
aF2.3655959013941352
aF2.3565479444889896
aF2.3488507339428812
aF2.3459540307193163
aF2.339862783910305
aF2.336828963135521
aF2.328893224587133
aF2.3225021032948576
aF2.3141356270333664
aF2.3089180260206175
aF2.3026056029888577
aF2.2970015620369546
aF2.2935309891179236
aF2.2887578731333633
aF2.283783633564756
aF2.27821193470126
aF2.273020937071816
aF2.26965623521747
aF2.2650581016399935
aF2.257590375929776
aF2.252593287074777
aF2.247655288187657
aF2.2439331489223604
aF2.2408595386749086
aF2.2403829365916756
aF2.237801083243086
aF2.2390776538087294
aF2.237868110421168
aF2.2366175056979842
aF2.2353937993185866
aF2.229608813057112
aF2.2278949701094164
aF2.2241508170519033
aF2.2210653060147196
aF2.218087182177624
aF2.216255035485701
aF2.213686514123735
aF2.212040010315219
aF2.209746043632984
aF2.2074494641592124
aF2.2094258618093474
aF2.2073569405254885
aF2.207761084861588
aF2.209395126199811
aF2.209782753441669
aF2.212895119133773
aF2.2142722200391467
aF2.2177917109257934
aF2.218435922944401
aF2.2202121528560754
aF2.2218270948262835
aF2.225938399627315
aF2.226643217947146
aF2.2313849337590037
aF2.2345903296211653
aF2.238177250615281
aF2.2372214999290763
aF2.240871514056291
aF2.2434258927955364
aF2.2459263130678235
aF2.249641804070783
aF2.252484174812462
aF2.261292902166518
aF2.2664264732724817
aF2.271554708047279
aF2.2766902494909043
aF2.2818194283858313
aF2.2869484943968303
aF2.2920762365872123
aF2.2972097255957733
aF2.3023385145280386
aF2.307475256646176
aF2.3126041379380187
aF2.317734414885705
aF2.32286947400709
aF2.3279967543995825
aF2.3331279857295733
aF2.338259494138298
aF2.343389678726407
aF2.3485202430150016
aF2.3536506944196685
aF2.3587860716684883
aF2.363914388540689
aF2.369046430582529
aF2.374174562735574
aF2.3793066971369936
aF2.3844354963314336
aF2.389567733354606
aF2.3946992828120313
aF2.401711799177411
aF2.419328959089519
aF2.430482233355452
aF2.415617200992399
aF2.402639340742792
aF6.1338387107485675
aF6.1378083337165386
aF6.10259676215284
aF6.076016858437361
aF6.067247960487319
aF6.054640588976389
aF6.058522609777238
aF6.051769543548985
aF6.070379282339762
aF6.0846471759744905
aF6.098210730850022
aF6.106280924776421
aF6.107262861614496
aF6.115530651805813
aF6.124892851443452
aF6.132767493201328
aF6.131850043699275
aF6.134189762956849
aF6.137713380283062
aF6.13917504996947
aF6.141963817774
aF6.147223266505479
aF6.166881560734
aF6.178612107524092
aF6.18430114988137
aF6.190430628325439
aF6.196557575294272
aF6.20268568490113
aF6.208647164923091
aF6.214944125969884
aF6.220518275050588
aF6.227839891194142
aF6.234302301335834
aF6.24054336209046
aF6.246728433097253
aF6.253036457585463
aF6.259820964091038
aF6.266305552966184
aF6.272904346572286
aF6.279433682603427
aF6.285956062522114
aF6.292398570078389
aF6.299540102709871
aF6.306254354048864
aF6.3128255950958145
aF6.318782311949509
aF6.325213658957617
aF6.331866760594666
aF6.337981298434742
aF6.344290057860944
aF6.343415996117234
aF6.344622714796836
aF6.342940675234888
aF6.343466265472152
aF6.3347140595797296
aF6.3317128762916415
aF6.327292161179901
aF6.319503454450999
aF6.314462870358838
aF6.310309643991481
aF6.305702908017206
aF6.303381410633381
aF6.302631878757934
aF6.300104856245394
aF6.295691767222836
aF6.29582413942372
aF6.296297092934648
aF6.2953227681029675
aF6.2963528395701545
aF6.301594083481211
aF6.303398828722415
aF6.305491732412353
aF6.311223862017375
aF6.31467085296948
aF6.313033755147218
aF6.31623694630361
aF6.3146953056741975
aF6.315237663460181
aF6.31496127919769
aF6.317267991998204
aF6.319457952577524
aF6.3210868291903894
aF6.33051174729105
aF6.3349386115914985
aF6.3385046009994195
aF6.341338443200899
aF6.342990777712625
aF6.345835234797738
aF6.34730826096815
aF6.349653266950382
aF6.352854773279278
aF6.357991591151971
aF6.361561595592663
aF6.360737320373408
aF6.36267929785928
aF6.361126382038511
aF6.362391237341348
aF6.363296163878356
aF6.3645322891675775
aF6.365593305660537
aF6.367208354392974
aF6.369756874724553
aF6.371556492399838
aF6.373359610615804
aF6.372282379872491
aF6.375655570604968
aF6.377606785330967
aF6.386602014545563
aF6.388780534265573
aF6.388284716464829
aF6.389872820878493
aF6.3894003576932406
aF6.387831030903875
aF6.388011540892544
aF6.388027652654608
aF6.388925800828269
aF6.389640817645441
aF6.390138185248455
aF6.391694835804882
aF6.390465189930471
aF6.3904060465741015
aF6.388673888264296
aF6.388670144490183
aF6.388282611128204
aF6.389892594614328
aF6.390666078319353
aF6.390884921017057
aF6.390158597290307
aF6.390005116221499
aF6.39100410661079
aF6.390478577381755
aF6.393536611098371
aF6.3949237661211304
aF6.39401499116446
aF6.393544682407695
aF6.393690999361553
aF6.393687491092143
aF6.393784546793517
aF6.393724809321419
aF6.393874591582785
aF6.393967539228086
aF6.3899762369845
aF6.388505098434871
aF6.388713377314195
aF6.390347334706698
aF6.3905125662897895
aF6.3923081329574405
aF6.391570602756714
aF6.391637034484232
aF6.392202003270505
aF6.392645014568705
aF6.392970209940064
aF6.392766358138163
aF6.392496254832653
aF6.392652430017808
aF6.392712213446715
aF6.3927719816955495
aF6.392496062670416
aF6.39261243507632
aF6.392626665197925
aF6.392765814111359
aF6.392824957375545
aF6.3928840834911345
aF6.392858787051132
aF6.392876281116365
aF6.388361113859618
aF6.387122933013416
aF6.385676190444089
aF6.387176262491471
aF6.387891388417227
aF6.387860665298405
aF6.388417977065373
aF6.388419511646372
aF6.388519200129037
aF6.388134607624167
aF6.388073397275091
aF6.387767607085692
aF6.38793499501204
aF6.387683620151456
aF6.387562213518816
aF6.387815723104104
aF6.387721627167837
aF6.387871304130049
aF6.387910438609796
aF6.387950250557055
aF6.387522480659513
aF6.387637282601114
aF6.387617239895652
aF6.387547798518545
aF6.387511100786789
aF6.384977104851673
aF6.384794752820779
aF6.384241633015561
aF6.3849203979387
aF6.384387530854667
aF6.384320024982161
aF6.384127323799237
aF6.38435330299815
aF6.3846636200779665
aF6.384546833854582
aF6.384542607868044
aF6.384444694732095
aF6.384576051371914
aF6.384607184468111
aF6.384617194191636
aF6.384306723517436
aF6.384376456738384
aF6.384347608889509
aF6.384318792637147
aF6.384297014015377
aF6.384270697421066
aF6.384446075421729
aF6.38441355198402
aF6.384440142718644
aF6.384388654238842
aF6.384373940833928
aF6.380230184055862
aF6.380886518112678
aF6.380606956432009
aF6.3801495171132405
aF6.381613408432942
aF6.382048614669628
aF6.382390466494068
aF6.381983810020101
aF6.3818575302535425
aF6.380568200712722
aF6.379989536911417
aF6.3817424195537065
aF6.3807034905679405
aF6.381643137343717
aF6.38194198500522
aF6.382241087833634
aF6.382539486712117
aF6.380626901290257
aF6.38150991352275
aF6.381617669052652
aF6.38184818659519
aF6.382003354948744
aF6.380622959392252
aF6.3802715793256235
aF6.380373354366297
aF6.379621421317152
aF6.379206654841768
aF6.37939608436041
aF6.379193587831436
aF6.37973103844147
aF6.379765739002405
aF6.379688723234947
aF6.379642543356145
aF6.379629812767009
aF6.37979904781213
aF6.3798230427645155
aF6.3798041520684325
aF6.379815987479248
aF6.379900527867516
aF6.37993881332743
aF6.379908537272463
aF6.379877714784765
aF6.379874459454497
aF6.379871201205825
aF6.380047773860214
aF6.379988331196074
aF6.379982601951426
aF6.375082786297258
aF6.374875698956982
aF6.375533270852844
aF6.375254216761331
aF6.375112558017078
aF6.375262396886068
aF6.375401452759119
aF6.375427530895582
aF6.37547194300887
aF6.375440628694683
aF6.3754098911452
aF6.375399557412581
aF6.375409502591288
aF6.375466080259724
aF6.375487212457463
aF6.375452127898485
aF6.375455913630809
aF6.375501431259006
aF6.375522395194302
aF6.375506639930718
aF6.375495257374675
aF6.373435600028627
aF6.373208122606692
aF6.37265445723498
aF6.373288205181169
aF6.373778916625066
aF6.373902982842441
aF6.373448429442204
aF6.373387883063346
aF6.37329820831488
aF6.373225719620523
aF6.373220605722609
aF6.3732565815003985
aF6.373237656967337
aF6.3732972091079985
aF6.373304893716647
aF6.37331703625944
aF6.37332603709074
aF6.373320381467758
aF6.373311723396798
aF6.373312237008587
aF6.3732922984948
aF6.373286710909564
aF6.373281118476286
aF6.373275535338707
aF6.370154831233517
aF6.370598091900923
aF6.370173276671549
aF6.371120626859669
aF6.370813950722013
aF6.370702153427029
aF6.370660254721086
aF6.370574338463593
aF6.37070182962618
aF6.370686953801734
aF6.370752679442248
aF6.370775936849227
aF6.370730068295229
aF6.370728498012523
aF6.3707362296418495
aF6.370737278050834
aF6.370704201433098
aF6.370748570071088
aF6.370760778166093
aF6.370773018467979
aF6.370717965226467
aF6.370706133839323
aF6.370609488754345
aF6.370611008211669
aF6.368786481853695
aF6.368577815269858
aF6.3680793662053805
aF6.368725470726639
aF6.369129355954742
aF6.368944010335421
aF6.368917353097229
aF6.368890693299983
aF6.368817808499336
aF6.3687894938543685
aF6.368752920721191
aF6.36884178970641
aF6.368850499233291
aF6.368833877534323
aF6.368830881587309
aF6.368827879922555
aF6.36882488594139
aF6.368821891223032
aF6.36881889290861
aF6.368815898268166
aF6.368812902740694
aF6.368674293120828
aF6.368714823822599
aF6.368704978965585
aF6.368695087822121
aF6.36877643236652
aF6.368792318350719
aF6.365244083205383
aF6.365257306365425
aF6.365954515584957
aF6.365856565110167
aF6.365602270851024
aF6.365746928242692
aF6.36585557023443
aF6.365873795476325
aF6.365892159648871
aF6.365842912882288
aF6.3658365808025055
aF6.3658303593868695
aF6.365824126639099
aF6.365817902434015
aF6.365697134546733
aF6.3656418990485175
aF6.365743825525121
aF6.365848844902713
aF6.365646689184246
aF6.365576300282886
aF6.3657000822608945
aF6.365736341236687
aF6.365750978488312
aF6.363510591313144
aF6.363240622617559
aF6.363601999233477
aF6.363479868475659
aF6.363641847979091
aF6.363781493701207
aF6.363826206703067
aF6.36385152241057
aF6.363848362876542
aF6.363871786645878
aF6.363895205074563
aF6.363818095519578
aF6.363754948814755
aF6.363732191562119
aF6.363703868938323
aF6.3637955661102
aF6.363812911962987
aF6.363830276449469
aF6.363847620463177
aF6.363763364179093
aF6.363745739894918
aF6.363728122833827
aF6.363710499042937
aF6.36034583536034
aF6.360423195748689
aF6.36103220965663
aF6.360930397554627
aF6.361511718454519
aF6.361664091915733
aF6.36181686693307
aF6.361578185180394
aF6.361563857836312
aF6.361635842373304
aF6.36165306961805
aF6.3616703099641505
aF6.361687547172821
aF6.361704768901209
aF6.361683237960966
aF6.361686032813408
aF6.361707995377779
aF6.361717167545063
aF6.361726385572892
aF6.3617780228943985
aF6.3618006318761235
aF6.361726451751612
aF6.361709339579969
aF6.359227880416684
aF6.359224826238252
aF6.359768403915204
aF6.360143220701062
aF6.3602730174727
aF6.359928006415987
aF6.359866734832993
aF6.359817458242727
aF6.359859561438463
aF6.359839489662708
aF6.359955052057048
aF6.359990390674605
aF6.360025653511112
aF6.360028053154219
aF6.360020705014048
aF6.359996144284612
aF6.359990489536777
aF6.3599737775968705
aF6.3599571395469905
aF6.360077880332879
aF6.36012758794687
aF6.360126871407614
aF6.360043459998474
aF6.360027722341167
aF6.360051639612562
aF6.35687209899846
aF6.356521114172437
aF6.3574442589308955
aF6.357417549727712
aF6.35766730104113
aF6.357639410936493
aF6.357663969864128
aF6.357662773491409
aF6.357678202057031
aF6.357653088469163
aF6.357626024146557
aF6.357616018865608
aF6.357623244467019
aF6.357619496333348
aF6.35761574161957
aF6.357683641409569
aF6.357709274961726
aF6.357734917435181
aF6.357694835098757
aF6.357693417213088
aF6.357730029624203
aF6.357696058547614
aF6.357711445682487
aF6.3577153447071995
aF6.3577192419929744
aF6.355605342560889
aF6.355481120544463
aF6.354967586476185
aF2.5100595162529915
aF2.5096068377858076
aF2.5095524235031164
aF2.5094477348353648
aF2.5096295102877653
aF2.509628712048137
aF2.5096270977817268
aF2.5096254816805708
aF2.5096238664741755
aF2.509622251813683
aF2.509575731822574
aF2.509552817245667
aF2.5096488948978566
aF2.5096019345916853
aF2.509592101644148
aF2.5095822763812268
aF2.509559103152422
aF2.5095442268258057
aF2.509583028990366
aF2.5118637263434973
aF2.5119704455691885
aF2.512517548062538
aF2.5106385778552243
aF2.5084227188253374
aF2.510015926670526
aF2.5102163089400387
aF2.511741327963672
aF2.5138210769517944
aF2.5151168245266673
aF2.515088554714074
aF2.515891759119228
aF2.515864857907709
aF2.516393099447971
aF2.517468263556193
aF2.5207039044667425
aF2.522370257052639
aF2.5230282097006773
aF2.523426539685648
aF2.5243725656042226
aF2.5235347746564645
aF2.529730512417909
aF2.532418380499861
aF2.530299137634842
aF2.5257664200674155
aF2.527580244038366
aF2.527937250058651
aF2.531913334494999
aF2.536093063721962
aF2.5388665995358775
aF2.5429479828726693
aF2.5470539180361165
aF2.5461791540389376
aF2.547590975960661
aF2.5434945005687633
aF2.5457321150054173
aF2.5499973808406535
aF2.552341133476707
aF2.560654138622626
aF2.5643912516360983
aF2.5641803544578945
aF2.566298878596303
aF2.5675494258226887
aF2.5675834826023856
aF2.56866102254853
aF2.5699058279097087
aF2.5761025241295066
aF2.5795878492173054
aF2.5848081670806833
aF2.5872962891806015
aF2.586822970249259
aF2.5884131863442725
aF2.588534691239616
aF2.589590490137664
aF2.594401841313511
aF2.596647099228478
aF2.6012139757235246
aF2.604180878195349
aF2.6102405007194314
aF2.613077945866779
aF2.616568988909809
aF2.620804160370358
aF2.6227601599691504
aF2.6248736074625483
aF2.627465736403614
aF2.6304858034221033
aF2.6333427058080083
aF2.6361314421364073
aF2.6407493169008056
aF2.643595341905491
aF2.646758663435242
aF2.6434675560069856
aF2.644486846081512
aF2.6484258995399212
aF2.6503151806956886
aF2.6570090685571994
aF2.6600115999151326
aF2.6621671942731577
aF2.6646259746819583
aF2.6696342846968633
aF2.673441399310242
aF2.6763124019022637
aF2.6815553173482463
aF2.6830948502456526
aF2.686056355021181
aF2.685985728975955
aF2.690154296711513
aF2.6927521272081467
aF2.6954594013933346
aF2.6977598580883955
aF2.699946252012282
aF2.7041992935094985
aF2.7073618226715475
aF2.70440001753317
aF2.7053306729158813
aF2.7091917685154927
aF2.714595618635305
aF2.7183208639627954
aF2.7218436493201152
aF2.7244688053928874
aF2.727640862099392
aF2.7307679151291158
aF2.730109289908855
aF2.733961861811774
aF2.7367391972507704
aF2.7403991175196665
aF2.743500840352577
aF2.7480142205721645
aF2.7531629458924516
aF2.7573844589715977
aF2.7581971601217807
aF2.7586251708244904
aF2.760391840225059
aF2.764971213322789
aF2.7677614839914115
aF2.770554357633886
aF2.772524931080525
aF2.7728034382757167
aF2.774522166472085
aF2.773819148915369
aF2.77448879068363
aF2.777747371500728
aF2.779346966320545
aF2.7803904277453566
aF2.7796799020325555
aF2.7803377887428233
aF2.77791463559587
aF2.77941253370638
aF2.779923141838844
aF2.7779705045215026
aF2.777610578099746
aF2.7772070636504456
aF2.772515008593527
aF2.7704095033422105
aF2.7674809460842673
aF2.7672541504866897
aF2.7656694070347205
aF2.7609532149487714
aF2.7568340570317416
aF2.7535807041881304
aF2.7540015622752616
aF2.752104652118431
aF2.744345658712366
aF2.742633105487273
aF2.739633364974351
aF2.7316403751202545
aF2.7266405981726978
aF2.7218402166465445
aF2.7167041273568935
aF2.7143091276720144
aF2.7104315574469107
aF2.7045329709685917
aF2.6999205054161237
aF2.6953304926600743
aF2.6909370257251077
aF2.6825106781234367
aF2.673317177161079
aF2.6663002274043146
aF2.6611380892403305
aF2.6522631589747308
aF2.652060166123504
aF2.648015494296887
aF2.639938795154773
aF2.6345856942192905
aF2.6291169529615983
aF2.62275478094348
aF2.6169729883648443
aF2.612618569886303
aF2.6050771094391445
aF2.598881747033574
aF2.5822048154476374
aF2.5745247655852594
aF2.5654271085180063
aF2.5610182855102397
aF2.556405649104073
aF2.549872996861054
aF2.5460435219201933
aF2.5402903416726623
aF2.5159531019280976
aF2.5048903395706192
aF2.494144626063858
aF2.487726816483377
aF2.478551336817264
aF2.4750692869235955
aF2.4645583690001316
aF2.4558311152995573
aF2.434629417393631
aF2.418248287391484
aF2.4038840572548175
aF2.389718858000462
aF2.3849469310519322
aF2.373965407904292
aF2.363747993787948
aF2.352987603614853
aF2.3365892895792224
aF2.3275483702153963
aF2.316267155351298
aF2.304093964968369
aF2.29582224364391
aF2.285630418883785
aF2.274392289930978
aF2.263806772415405
aF2.2494921279555267
aF2.2348215306592385
aF2.2230469499487944
aF2.2117253080096284
aF2.199585787836516
aF2.1847998617972877
aF2.170940695376278
aF2.158175160941158
aF2.144548685132548
aF2.12765409879632
aF2.1125807810931203
aF2.105566867154752
aF2.095420686651428
aF2.0843184431898614
aF2.0703375655749827
aF2.060714838211072
aF2.0495196820593606
aF2.0312811415034577
aF2.018048444040216
aF2.0012145186608246
aF1.9873945786372071
aF1.978102476331915
aF1.9654922137266846
aF1.9544483089924243
aF1.9425305534065007
aF1.9314982666127776
aF1.9214763724378896
aF1.9055452508363806
aF1.8922570726463555
aF1.881254675967111
aF1.8738366322166473
aF1.8586015904437483
aF1.8459228765075277
aF1.8342057970733556
aF1.8241827858593211
aF1.810775635806941
aF1.7984415583606754
aF1.7869264399331692
aF1.7791841534109176
aF1.768865534703124
aF1.7567853722007953
aF1.7458753871228145
aF1.7354065644809165
aF1.7165511591170715
aF1.6914718348799074
aF1.6782528822726208
aF1.6624259267060015
aF1.6568908244943303
aF1.6431116876971927
aF1.6300784848828158
aF1.6168949725080743
aF1.6038109492643366
aF1.5927268500695542
aF1.5847520719883814
aF1.5740383257673867
aF1.5633344755249308
aF1.5528842209190081
aF1.5407721541620756
aF1.5246481075490275
aF1.5038054871238908
aF1.4870335367676963
aF1.4779891808896597
aF1.4713069757418236
aF1.4612966654457495
aF1.450778759828438
aF1.440218744983964
aF1.431523903581775
aF1.4222689893192206
aF1.4043811473681052
aF1.3946778324327762
aF1.3832325360552504
aF1.3774475579405947
aF1.3675641450164222
aF1.3586764826998379
aF1.3493562898327576
aF1.340605048182224
aF1.3314953002416505
aF1.3301634337818387
aF1.3235617873314274
aF1.3167981825451434
aF1.3033949823617115
aF1.2886386346439997
aF1.2772701876608696
aF1.2695452039512682
aF1.2642299507731516
aF1.2581747189116599
aF1.2507290734078067
aF1.2506601590078232
aF1.24220916974694
aF1.2357541057802437
aF1.2224496204704098
aF1.2134862267048945
aF1.2102979165902115
aF1.2118786959368308
aF1.2078365130357005
aF1.2028916934028149
aF1.1980243716117358
aF1.1934866597977636
aF1.1881162532803957
aF1.1832997611836866
aF1.1808448733837604
aF1.1772872254177007
aF1.1734090917822049
aF1.1781933527473623
aF1.1771662501758051
aF1.1766255352369437
aF1.174000760412997
aF1.1724133824739615
aF1.1682940850101122
aF1.1698228999765812
aF1.1684724115438647
aF1.1713683655619498
aF1.1721988939407018
aF1.1711402411544305
aF1.1694411769402597
aF1.1687076850343634
aF1.1656210263285454
aF1.1623611024854905
aF1.1600889764292006
aF1.1620691252917688
aF1.159901114623874
aF1.160906639600162
aF1.1605312009152415
aF1.1612108346682888
aF1.1597113361538756
aF1.1590761948273824
aF1.1610041899432355
aF1.161317961236381
aF1.1564784747086905
aF1.1540079854707916
aF1.1518524060579733
aF1.1529450011243
aF1.1519854229468551
aF1.1517039855418019
aF1.1535010030289437
aF1.1538173397028153
aF1.1562207746880304
aF1.1545448481022924
aF1.1539202122107715
aF1.1536847408848523
aF1.14815750006681
aF1.1459705567967848
aF1.1475670553183464
aF1.149308924771005
aF1.1495267988891098
aF1.1477069781756613
aF1.1471498620814984
aF1.141170120166965
aF1.1391444195547793
aF1.1369169207078889
aF1.1380235456504968
aF1.1368837976533435
aF1.1315300304451612
aF1.132166238266319
aF1.1258582977940632
aF1.122605042947158
aF1.1229958319474083
aF1.1240271815627896
aF1.1234146801870084
aF1.1212495634346658
aF1.1184335349502188
aF1.1156086755374712
aF1.1132971858536553
aF1.11267223207774
aF1.1087610864119988
aF1.1047574047163549
aF1.101497308026036
aF1.0982358288418173
aF1.097844029046053
aF1.0975840647894044
aF1.0960544069262106
aF1.0962206880184633
aF1.0921912925709227
aF1.0861089620994635
aF1.082115824258553
aF1.0793247722877304
aF1.0756541165420765
aF1.0720483621528416
aF1.0731672989986158
aF1.072663508627886
aF1.069680580373408
aF1.0654799446863974
aF1.0623898503680866
aF1.0611278965466848
aF1.0586964757226376
aF1.0562783238074225
aF1.0538517093988329
aF1.0495699336790016
aF1.046336856044281
aF1.0432437432034334
aF1.042140493443549
aF1.0360416732070483
aF1.0321688519621173
aF1.0308059227118278
aF1.0326368484064012
aF1.031676212994891
aF1.0312856066817417
aF1.0324010655637617
aF1.0279317191897706
aF1.0257370748636738
aF1.0200583647746075
aF1.019194677263016
aF1.016987436499618
aF1.016954285705415
aF1.018050046720635
aF1.0176669808273218
aF1.0156215345346036
aF1.0147106969347206
aF1.0033500201975185
aF0.9996129325008027
aF0.993309159048458
aF0.9939004737239747
aF0.9732777844416685
aF0.9782056277624944
aF0.9752356054877485
aF0.9709053170943207
aF0.9682940151404154
aF0.9641852780886992
aF0.9640204352859856
aF0.9618697353166628
aF0.9598286300521481
aF0.9570703599154804
aF0.9558567321396705
aF0.9540005984279727
aF0.9525038931762797
aF0.9507661396515887
aF0.9467723199368976
aF0.9455459599116471
aF0.9435810920173395
aF0.9408993638350349
aF0.9388804807915783
aF0.9367527305498964
aF0.9346048274773917
aF0.9305340463676774
aF0.9274763115807234
aF0.9267609735065605
aF0.9245648948283716
aF0.9223663633690578
aF0.9224872943335205
aF0.9208197672039482
aF0.9163855315047433
aF0.9114265202818608
aF0.9159724899272419
aF0.9162275001128686
aF0.917278208976569
aF0.9099370191760112
aF0.9081618258854007
aF0.9059237745514146
aF0.9049570721598617
aF0.9050079941326867
aF0.9021744952694473
aF0.9002549697076274
aF0.8992090416134912
aF0.8976128967564154
aF0.8990571233078688
aF0.8984011358950736
aF0.8992820273655511
aF0.898262589814065
aF0.8977303229891058
aF0.8981184336311436
aF0.8979206424558583
aF0.9002516706185393
aF0.9012333501458016
aF0.9036392180570259
aF0.9049190785536156
aF0.8972015928282921
aF0.8993904651454878
aF0.9009872076102923
aF0.9015454834993637
aF0.907448243610431
aF0.9101124681973367
aF0.9183743580246526
aF0.9146355911515904
aF0.9161990223208125
aF0.9225137928460558
aF0.9256383943063842
aF0.9264500938056255
aF0.9332517744634714
aF0.937451210394805
aF0.937746276820806
aF0.9444352021165914
aF0.9456132933676988
aF0.9484927855327765
aF0.9524148264511538
aF0.953391515910301
aF0.9582398131064132
aF0.961750901690845
aF0.9652622009456486
aF0.9689431928323815
aF0.971336794758999
aF0.9744952987219389
aF0.9796342199024117
aF0.9889127943059606
aF0.9935293715407356
aF0.9989117419768654
aF1.0003987658592228
aF1.0023469798462195
aF1.0078430368526625
aF1.0120882924465429
aF1.013398466799356
aF1.0154933165419902
aF1.0209992831345085
aF1.0250525234877266
aF1.0268311344247536
aF1.0306676009297462
aF1.0318400876638698
aF1.0342445687773925
aF1.0404786808634574
aF1.0466376364865768
aF1.0514203678308602
aF1.050146465919239
aF1.0529077259993809
aF1.0556609146608542
aF1.0537569545110212
aF1.0549895414646109
aF1.0660363002537743
aF1.0702652081224073
aF1.0745120232102376
aF1.0716394955024926
aF1.0735650871919002
aF1.0727306843444149
aF1.073909029294179
aF1.0750873648184092
aF1.0773671168896675
aF1.0841616138402275
aF1.087623279717108
aF1.0885120510144262
aF1.0900079390926045
aF1.092088981029666
aF1.0960216139221677
aF1.0942037130908222
aF1.0951044211299488
aF1.0937179108911508
aF1.0929264999534016
aF1.0927457011471766
aF1.0909962729571312
aF1.0902969660838204
aF1.0952125068501015
aF1.0961959797843743
aF1.0993780186683244
aF1.1010372463850988
aF1.1020142581525176
aF1.1029697240525618
aF1.1042729893637908
aF1.1072043413847528
aF1.1081942186001301
aF1.1078825888734798
aF1.1084905103602054
aF1.1091843401487447
aF1.1052647958428619
aF1.1042108379506752
aF1.102566676605056
aF1.1053452644772213
aF1.1057593688401504
aF1.1107354966718255
aF1.1126738560599785
aF1.115731106630503
aF1.1181512545299372
aF1.114979845006959
aF1.1157558991647885
aF1.1164503084369213
aF1.1114357354520985
aF1.108891891612851
aF1.108675341565359
aF1.1076505326299024
aF1.1061580210326643
aF1.104959012821383
aF1.1023719568698613
aF1.099749709399621
aF1.0976791719016221
aF1.0939822561869628
aF1.091309553662077
aF1.0862258443738426
aF1.0827461002616268
aF1.0759495652872353
aF1.0714681358603677
aF1.0722359125738903
aF1.06624969105222
aF1.0620187891056254
aF1.0564555819877954
aF1.051709018690306
aF1.0462320025057528
aF1.0412391151547764
aF1.0297130144597997
aF1.022787555067847
aF1.0112423462249396
aF1.0100530935941077
aF1.0041302440224253
aF0.9981440383999249
aF0.9921549697105574
aF0.9877946349639517
aF0.9767864568485196
aF0.9695548349260559
aF0.954684460422456
aF0.9502004829412174
aF0.9424943407126305
aF0.9360432011457984
aF0.9273168474163729
aF0.9182178356439037
aF0.909763757458343
aF0.903392749972971
aF0.8965654156628844
aF0.889204297044726
aF0.8833061080430209
aF0.8746822128693168
aF0.8647671379219348
aF0.8560893268406478
aF0.8480728019768016
aF0.8452562229579064
aF0.8390787712360837
aF0.8235088066453962
aF0.8152606071551771
aF0.8083138315546803
aF0.7979206746375116
aF0.788755007130236
aF0.7795486805586789
aF0.7718384407354781
aF0.7598072303902725
aF0.7496175148398887
aF0.7438201615935691
aF0.7387225070235832
aF0.7315603035105704
aF0.7168942418476716
aF0.7096766802470222
aF0.6979012738004524
aF0.6877700002720468
aF0.672837852598045
aF0.6612595938036874
aF0.6495424942463508
aF0.6336247745031454
aF0.6406076386221988
aF0.6345653209122624
aF0.6227390664260994
aF0.6109681480831739
aF0.6004654021985081
aF0.5908747855861325
aF0.5797016228521734
aF0.5695987324255567
aF0.5592779485484138
aF0.5513298317222057
aF0.5419917784820445
aF0.5339955079509515
aF0.5250973269034986
aF0.5134957506885902
aF0.4986096088350074
aF0.49170706657435304
aF0.48343803499551186
aF0.47447877988444986
aF0.45856949134197933
aF0.4538073806542604
aF0.4450264305442193
aF0.4385611392648272
aF0.4326242170113126
aF0.42186985676350996
aF0.4130805927876011
aF0.4030676710618071
aF0.39384140025792824
aF0.38461603343513584
aF0.37538957814532203
aF0.3661673660320366
aF0.3569466851520229
aF0.347718883114875
aF0.3384954902915993
aF0.3292696253567797
aF0.32005027277550546
aF0.3108257914852075
aF0.3016036531662962
aF0.2923769949419519
aF0.2831538972961738
aF0.27392984032352885
aF0.264700673090454
aF0.25547622869734266
aF0.24625700525622385
aF0.23702802250908483
aF0.22780184394817482
aF0.21858103392800388
aF0.20935518744177983
aF0.2001363698697194
aF0.19090714729086233
aF0.18168142994479197
aF0.17245602622481293
aF0.16323381411152926
aF0.15400278357049935
aF0.1447825085595431
aF0.13555987212860643
aF0.12633810278156776
aF0.11711253302424751
aF0.10789161231251487
aF0.09866237128506494
aF0.08944458683424727
aF0.0802147185546156
aF0.07098887206839066
aF0.06176665995510611
aF0.052545720794779704
aF0.043312070553458426
aF0.03409714563464927
aF0.024869398943280885
aF0.015647961670929966
aF0.006420583951434189
aF-0.002799322087648548
aF-0.01203422683333688
aF-0.02125374545195413
aF-0.030470902650590048
aF-0.039695863604320536
aF-0.0489248094542738
aF-0.05815157837017981
aF-0.06737008231614894
aF-0.07660323444544392
aF-0.08581607467317465
aF-0.09505343308181047
aF-0.10427035044873012
aF-0.11350232186803311
aF-0.12272145306618576
aF-0.13194447691758882
aF-0.14117111669333937
aF-0.15039414054474332
aF-0.15961351157461134
aF-0.1688421437984715
aF-0.1780715139660769
aF-0.18729540490137975
aF-0.19651435161359476
asS'x'
p3
(lp4
F0.015033511845099625
aF0.015031779394013116
aF0.015028695193935888
aF0.015025608591910624
aF0.01502251948914254
aF0.0151331814794696
aF0.01516461758244513
aF0.015219007114770679
aF0.015235533471370114
aF0.015221698781278685
aF0.015230173655159383
aF0.015213679625459308
aF0.015172735944877423
aF0.01515501297842267
aF0.0151462308332503
aF0.015117600692774414
aF0.015096446851781959
aF0.01519908120866455
aF0.014976816123081505
aF0.01488391465801121
aF0.014741307162789322
aF0.014629621742116752
aF0.015862087264040755
aF0.016196149665620198
aF0.01904725943853302
aF0.02340230889035641
aF0.02580664365910393
aF0.029601234471139423
aF0.033320760716062534
aF0.0365456066063794
aF0.0418692541871607
aF0.04743266264982442
aF0.052052389098024364
aF0.05712572108390502
aF0.06427147138818969
aF0.07018622911944719
aF0.0778579424557082
aF0.08474375951624974
aF0.09129984484799296
aF0.09308216758602238
aF0.09792317244441998
aF0.1009686448194893
aF0.10976602247424057
aF0.11593486407648335
aF0.12070594087457698
aF0.12637093217723863
aF0.1297275887080588
aF0.1346202829506106
aF0.14028191850195634
aF0.1503982612027741
aF0.15921144265169268
aF0.1669856074533558
aF0.17490608218557452
aF0.18539282092697543
aF0.19454072182842597
aF0.1975752178107889
aF0.20449230316519676
aF0.21347242745595046
aF0.21957221495951137
aF0.22810852850509605
aF0.23583256056455293
aF0.24486179410636452
aF0.2512633178912146
aF0.2587327495883047
aF0.26232651770742793
aF0.26611035419790197
aF0.2761384470523984
aF0.28366369251687285
aF0.2971567342649713
aF0.3107649695480348
aF0.31544217970571986
aF0.32228987717908
aF0.32741516692437633
aF0.3391776871779345
aF0.34802701246545775
aF0.35735132576016493
aF0.36285326856244726
aF0.3704373846788933
aF0.37469963452060995
aF0.3828930934538628
aF0.3900961918824364
aF0.39434503353368544
aF0.40071717519879446
aF0.40700607016571755
aF0.4132448202434862
aF0.4206454205992999
aF0.4273922496692779
aF0.43414798277768474
aF0.4455818953475128
aF0.4554000439339959
aF0.4661767014577054
aF0.47571952884120206
aF0.489818602306093
aF0.5010299045798963
aF0.5084339351893076
aF0.5165780513585854
aF0.5259392112117954
aF0.5387235066374213
aF0.5501913237352869
aF0.5611355568726347
aF0.571979783484806
aF0.5829014810480854
aF0.5877759293767376
aF0.5966250972437545
aF0.6077621307466414
aF0.6219048130472516
aF0.6335239110980049
aF0.6447076967620406
aF0.6561576900747397
aF0.6741924369911415
aF0.6912429106233051
aF0.7011532665532367
aF0.7138748570151088
aF0.727707817864881
aF0.7387778241045834
aF0.7510477718553975
aF0.7584443604271977
aF0.7689875706312641
aF0.7941970309612743
aF0.8101994321962381
aF0.8261519318560051
aF0.8464298880651756
aF0.8627255983141063
aF0.879469053935898
aF0.890931935118371
aF0.9075314741066162
aF0.9232842431647126
aF0.9345345349822322
aF0.9535243087073401
aF0.9666322487371152
aF0.9807100799474062
aF0.9928091782910646
aF1.0061305480780844
aF1.0194797637756263
aF1.0363203252398314
aF1.0563853232714284
aF1.0736774570911067
aF1.0869468471454007
aF1.1027764415080665
aF1.111741668280061
aF1.1285824007461467
aF1.1435782088994686
aF1.1598305309485344
aF1.1731079379922469
aF1.1875963094650022
aF1.2029672302428853
aF1.2185680259406748
aF1.2337835108147375
aF1.2579069881493794
aF1.2763934159566235
aF1.2859581381764849
aF1.2980327494828954
aF1.314062883038229
aF1.3292889426092502
aF1.345470829166578
aF1.3623406559971232
aF1.3785470122693546
aF1.3892582612438111
aF1.4034705135842507
aF1.4176675364209927
aF1.4405250806144108
aF1.4578766479607526
aF1.4694376899704338
aF1.4803936788775764
aF1.4940238274656088
aF1.5079794681729182
aF1.52203855335186
aF1.542043355882153
aF1.5585346565611686
aF1.5772640784676517
aF1.5852408541076843
aF1.6010451536161605
aF1.6155743190416643
aF1.6298141503864256
aF1.6448430137621464
aF1.6611133059847383
aF1.6765540573189774
aF1.6909957687294819
aF1.706986651749848
aF1.7224296063623454
aF1.737666609809308
aF1.746552155142708
aF1.7590570400513823
aF1.7699131648701771
aF1.7858312083105703
aF1.799676708117524
aF1.8163507835180388
aF1.8328102656946004
aF1.848480326831031
aF1.861515701833936
aF1.8796858795556972
aF1.8933724243168193
aF1.9083763949181711
aF1.917378589059961
aF1.9286209327454118
aF1.940801432706108
aF1.9579206489448788
aF1.9722122654482768
aF1.9898101804720865
aF2.0055234008502607
aF2.020363235858687
aF2.0343280831877992
aF2.0491430991046524
aF2.0648070564135192
aF2.0807258986761017
aF2.096162880494518
aF2.1142014371114763
aF2.128662217701324
aF2.144273676675372
aF2.1583699333807003
aF2.1730527422444625
aF2.193095447303574
aF2.209263696805709
aF2.2249538080664166
aF2.2411015592417156
aF2.255793758246254
aF2.271358524391208
aF2.289181847255457
aF2.304787541954804
aF2.32461781033122
aF2.3424138677041695
aF2.356702545714808
aF2.373255995191144
aF2.3833862985326997
aF2.3945173158670547
aF2.4096720591666276
aF2.423801459395478
aF2.441289186178266
aF2.456673723120753
aF2.469355659911816
aF2.4838567963929243
aF2.5014520420486024
aF2.5263293599777628
aF2.5464314674728854
aF2.5661323503269364
aF2.576010466677115
aF2.592080474838227
aF2.604706065576567
aF2.6212755488094768
aF2.636893539926603
aF2.659596829830804
aF2.6760303061973785
aF2.693386798476302
aF2.7069176627505813
aF2.724717279340516
aF2.7415246472058237
aF2.7518104218162156
aF2.7721872343236647
aF2.7892170911543075
aF2.8083101872680887
aF2.826022446305521
aF2.841442097410651
aF2.8596216762968596
aF2.8659675491412235
aF2.8792916072696784
aF2.8927100245018327
aF2.910927241134732
aF2.92564437935537
aF2.947488914469855
aF2.9664646829389176
aF2.984587431585283
aF3.0036701068096714
aF3.0162815113102774
aF3.0367797618663066
aF3.055064273244875
aF3.0667538517077895
aF3.0825540291700135
aF3.0984549744370935
aF3.1183397102610932
aF3.1357929923192542
aF3.14929091120591
aF3.171297684510486
aF3.1900163477074037
aF3.20468832739191
aF3.2195250595854557
aF3.2357964085407525
aF3.2437690402007133
aF3.257430136461781
aF3.2663209534467943
aF3.2906270990423963
aF3.30730381734528
aF3.324299152361515
aF3.3448503366147424
aF3.363961390910471
aF3.373907872976855
aF3.3885401807815136
aF3.401693505499426
aF3.4141203581787143
aF3.4275212474632055
aF3.451037389229695
aF3.464354703557669
aF3.4798754325137495
aF3.499751787933075
aF3.516306179320075
aF3.533093822988594
aF3.5423727469359116
aF3.5574837197198894
aF3.5797196691597324
aF3.597976453922764
aF3.6165965400602293
aF3.6349676429699485
aF3.63435262223055
aF3.6476620027480315
aF3.6606979561653796
aF3.6802622044722795
aF3.7028226111432168
aF3.7201650951433716
aF3.738002256298596
aF3.756315718546933
aF3.764605295409097
aF3.778553321413609
aF3.789666499291953
aF3.806012226930052
aF3.820552827167067
aF3.8460727114957782
aF3.8614774451978158
aF3.8786823375148924
aF3.890262758720501
aF3.9015821822983296
aF3.920624875294915
aF3.936764968550707
aF3.9514349007750367
aF3.967058323268407
aF3.9688581004967864
aF3.992236786235919
aF4.00927747456708
aF4.0267423574020285
aF4.045224141409141
aF4.058462007279044
aF4.07411172406624
aF4.0826288735203295
aF4.09537484771945
aF4.108267238607969
aF4.119612527083264
aF4.135987921901814
aF4.149984998750837
aF4.166258831658514
aF4.1791552795225995
aF4.191344851042055
aF4.204618293417444
aF4.211653650782474
aF4.22273964152585
aF4.236017967144553
aF4.247736766870237
aF4.256134745280445
aF4.282319264380589
aF4.298094071376051
aF4.315751544938977
aF4.332505325286095
aF4.340991172854921
aF4.356537965286838
aF4.372570453879556
aF4.387806675539347
aF4.4032000385686905
aF4.415939822017546
aF4.430196883982701
aF4.449886658701082
aF4.45587863453257
aF4.463767132543097
aF4.474282387040392
aF4.486262384176873
aF4.5068866485858425
aF4.524434025316421
aF4.540111887373013
aF4.5498913964961964
aF4.56366380124488
aF4.580041555324022
aF4.592035303960689
aF4.6057153098011
aF4.6196887935044595
aF4.63338914908588
aF4.648609389959113
aF4.660552390378624
aF4.6750367615010395
aF4.688911955721444
aF4.702807875109615
aF4.706793655487158
aF4.722078405265327
aF4.734865361381461
aF4.747117628241604
aF4.76299166762812
aF4.776989898605889
aF4.7989557237185325
aF4.815877345046976
aF4.829098612527014
aF4.845447528142153
aF4.861409261249411
aF4.868015815998832
aF4.8808493580072305
aF4.8870393214881105
aF4.897924607053601
aF4.907574279089884
aF4.923036684897494
aF4.935488764895161
aF4.955022155913318
aF4.966765906579664
aF4.98031356419443
aF4.991943524852932
aF5.004034888703536
aF5.01649226414639
aF5.028968612236615
aF5.03573673470062
aF5.046632340370709
aF5.055769311389205
aF5.065530139394173
aF5.076755249713984
aF5.087415827908275
aF5.097171392964415
aF5.1061575863661135
aF5.119006453820336
aF5.12979296709807
aF5.136759118222475
aF5.1476845838828345
aF5.1578394664105875
aF5.1620804536198035
aF5.170044769588208
aF5.176799035298907
aF5.1854123710183995
aF5.193421500215732
aF5.198381331196765
aF5.20537703574329
aF5.212058866793428
aF5.226176184146305
aF5.23535004456504
aF5.245787771097431
aF5.255795611098099
aF5.2614605182137355
aF5.270018754996378
aF5.272600787492979
aF5.282779524900626
aF5.290444544572981
aF5.298265207666479
aF5.308514045672931
aF5.317238465200491
aF5.317290995498475
aF5.321681327017635
aF5.327144690597178
aF5.332588590020823
aF5.335752443923489
aF5.34023633325009
aF5.344503063640505
aF5.348901587186268
aF5.3573882153820565
aF5.363194445492112
aF5.365687232201398
aF5.366650522229724
aF5.369863371938929
aF5.373920435069995
aF5.377415120946224
aF5.382828716083442
aF5.387146563162203
aF5.391310076273755
aF5.393060887014036
aF5.394598226259876
aF5.397099028420574
aF5.399663345995503
aF5.396275968080138
aF5.397161001390593
aF5.398045148809382
aF5.397048903507692
aF5.398658575100184
aF5.3994841158673195
aF5.400890425140059
aF5.400332846774575
aF5.400686202643353
aF5.402662809672286
aF5.403645338021885
aF5.404397630820322
aF5.402936095101964
aF5.402810176503559
aF5.406080673552587
aF5.4072338903759185
aF5.40898571513477
aF5.410345205371843
aF5.411704904879589
aF5.412068989595126
aF5.415397383794278
aF5.4133897819338905
aF5.4139700245262254
aF5.411358170676113
aF5.41311098130452
aF5.413560483139464
aF5.4178948199493995
aF5.417420277408963
aF5.418264621143311
aF5.417773230898683
aF5.4180963090959855
aF5.417446154767883
aF5.4174467956370265
aF5.413907039993724
aF5.411424927657506
aF5.409821282982282
aF5.408217676712312
aF5.409893933182739
aF5.409115847249829
aF5.411246317501898
aF5.405028339820646
aF5.404015342623059
aF5.402393597610864
aF5.400394764623338
aF5.39951833745399
aF5.398141048223507
aF5.397094422160396
aF5.39929371864262
aF5.399730847102138
aF5.399527590943219
aF5.3997108753641765
aF5.398621313860703
aF5.396374722604004
aF5.395311219789845
aF5.394863399358182
aF5.394045385888493
aF5.393205147602775
aF5.385575469167367
aF5.38148293928234
aF5.3815873640206044
aF5.379784382673834
aF5.381096297685636
aF5.380487465498232
aF5.382357661696458
aF5.380032263293145
aF5.3791895165713095
aF5.379618690855059
aF5.377416347816672
aF5.376226899509109
aF5.375089430749183
aF5.373940055633548
aF5.369280899132976
aF5.367953080838752
aF5.366028311204866
aF5.367001735515509
aF5.36830206134398
aF5.368313873144163
aF5.365665601700761
aF5.364664971824773
aF5.363688970006851
aF5.363469912716238
aF5.362844870850589
aF5.360631995336165
aF5.359389284021107
aF5.355575458531942
aF5.353832698168424
aF5.3518844642602055
aF5.352475470010513
aF5.3513771269954304
aF5.35262813217796
aF5.352338057505834
aF5.3540262734317645
aF5.35087116322166
aF5.349844862892524
aF5.34532365960919
aF5.345800637231218
aF5.344813861121292
aF5.344548969325177
aF5.343797837210931
aF5.342937941722674
aF5.34173652589542
aF5.340764683764141
aF5.338499740158486
aF5.337030358639062
aF5.333034917546458
aF5.330695596642129
aF5.329321455124898
aF5.327312593232735
aF5.328115592379625
aF5.321456276791818
aF5.31805103185526
aF5.314943151499233
aF5.311644548307471
aF5.312559081378408
aF5.3105450342461475
aF5.310638711775319
aF5.309379001695599
aF5.30761450125693
aF5.302102549623943
aF5.299113934761055
aF5.296008261155772
aF5.292887728752931
aF5.29104807848036
aF5.2858419502137455
aF5.282345338982374
aF5.2800535146181256
aF5.276882306605761
aF5.271175337890138
aF5.26708618785762
aF5.263005321543387
aF5.2565631033978475
aF5.25157508192406
aF5.246584046919867
aF5.23817464490826
aF5.232339218965093
aF5.221357713326704
aF5.213487107975254
aF5.209438927334062
aF5.20286378200139
aF5.198194935070413
aF5.195051820211444
aF5.190123248234698
aF5.178726804342451
aF5.171629310358887
aF5.168361008741397
aF5.162410707715138
aF5.1539745992941715
aF5.145162697597573
aF5.137522650139407
aF5.133252938877436
aF5.126881709048751
aF5.1205202343447205
aF5.104188995902353
aF5.092498982415469
aF5.082750645135296
aF5.075437142809001
aF5.0690911348943715
aF5.06106579497587
aF5.050148826939046
aF5.042546390823631
aF5.034159898001239
aF5.0231580665557996
aF5.013767734850122
aF5.00399039027921
aF4.990873359476201
aF4.979761337781929
aF4.971558650755276
aF4.9615305272942205
aF4.954596150032726
aF4.942849733293199
aF4.932637545694584
aF4.921471073392938
aF4.910878980057566
aF4.897930468697302
aF4.886459723902111
aF4.878082707259583
aF4.867653441672756
aF4.8548912312848636
aF4.843754827526362
aF4.833281245094996
aF4.82134889481798
aF4.808824845008894
aF4.796975016590769
aF4.78340175268026
aF4.770913532288333
aF4.763282347202057
aF4.752270536627632
aF4.7412694728448415
aF4.727910023980618
aF4.711968727410175
aF4.698438323762271
aF4.689295674060328
aF4.674935687132815
aF4.662198943969455
aF4.646643601720701
aF4.632681463736996
aF4.625809970582414
aF4.606571474165913
aF4.591447382473323
aF4.580782612447536
aF4.5673786307384345
aF4.5600601201409505
aF4.548840286509661
aF4.537521528964348
aF4.522671945187937
aF4.510131384644719
aF4.497575038383908
aF4.489322645360102
aF4.46311898692778
aF4.442009357014163
aF4.426957356186739
aF4.41022028688665
aF4.402642747258621
aF4.3938686205523725
aF4.38244614462454
aF4.377087532290826
aF4.367688826766736
aF4.3381928923867665
aF4.324234831990787
aF4.313795215805041
aF4.300716285092348
aF4.2955021415521735
aF4.285244637183935
aF4.27286705938769
aF4.261871440301715
aF4.237448647973747
aF4.220713296168806
aF4.201577480671132
aF4.1840660935302205
aF4.174222873359511
aF4.168927166872304
aF4.158079352861943
aF4.149069992507751
aF4.135127459800692
aF4.120405858994669
aF4.107174048684247
aF4.094736746013228
aF4.082453061720765
aF4.069781616955821
aF4.064082970999071
aF4.0537200173802015
aF4.035384470335715
aF4.0174970277143895
aF4.002756558580775
aF3.9976124684245944
aF3.986076000217918
aF3.973997912718467
aF3.9622944330482692
aF3.9497483897584345
aF3.9390880951802996
aF3.919659907707625
aF3.9048281560674436
aF3.901127268962508
aF3.889874502949203
aF3.880845116491686
aF3.871103435005392
aF3.846727110116883
aF3.8291895398128935
aF3.82102944926218
aF3.808347810884826
aF3.7987697984647166
aF3.7872113880171097
aF3.7749042495031535
aF3.757513417395713
aF3.743539870616504
aF3.7278785739542153
aF3.7129518792942764
aF3.6982447201929003
aF3.688004676854445
aF3.680581805332268
aF3.6695468090252583
aF3.66103499553758
aF3.6508303315598694
aF3.62507035064732
aF3.595827938126996
aF3.5768677103977606
aF3.566739705090183
aF3.5517674297924375
aF3.5346015068539782
aF3.5259445816351227
aF3.513211851664947
aF3.5004746875476287
aF3.491490372527635
aF3.475370691108034
aF3.45783476846732
aF3.4433062330298907
aF3.4320268871015407
aF3.4095771043759857
aF3.392568877905761
aF3.3731522397084874
aF3.35532817010713
aF3.343771908314542
aF3.330748210117154
aF3.3158332916987074
aF3.306695286804273
aF3.296316668713765
aF3.2839650594122567
aF3.2716329412081437
aF3.254457024365685
aF3.2311065559618117
aF3.2143803049604354
aF3.1970395383994603
aF3.176348204112818
aF3.1655617893108445
aF3.153823797225512
aF3.140146856669217
aF3.1286571237713114
aF3.112386078472704
aF3.0980694098611035
aF3.0940244628986253
aF3.0830315790732308
aF3.05715724491343
aF3.037953314724177
aF3.020565209506642
aF3.0085728007680888
aF2.9970581391232924
aF2.9828053157694514
aF2.9686337841757733
aF2.9490962456599363
aF2.9395536079863156
aF2.925227348045667
aF2.910334055208516
aF2.895971809269161
aF2.88081945986303
aF2.865630624422227
aF2.8507303081091857
aF2.8388051327070625
aF2.8270826080635323
aF2.8144291151696694
aF2.8015869988590993
aF2.7817034430008585
aF2.7694127211329524
aF2.755303522728931
aF2.7411836228105644
aF2.7419748194965052
aF2.7257905778393354
aF2.713318838148418
aF2.690320704642997
aF2.6760083273400213
aF2.660618553132629
aF2.6484768663984255
aF2.6379040620063186
aF2.625130044266694
aF2.60855090635359
aF2.59912304534523
aF2.586887737466056
aF2.5674755138287657
aF2.5485787095914336
aF2.532119712917225
aF2.5217486475904245
aF2.5143048535433676
aF2.4989704861986564
aF2.485652569207425
aF2.474995238044059
aF2.4656276607323333
aF2.4476832858636306
aF2.4339568943657226
aF2.4187725060644016
aF2.4028088441057385
aF2.387649102855217
aF2.3731429495892975
aF2.3564216156829665
aF2.343460698514695
aF2.329086161513358
aF2.3179398225209833
aF2.303450463848824
aF2.2897143891404133
aF2.276764669104389
aF2.2569813611899505
aF2.239241740436658
aF2.2225886278914833
aF2.2137916724599385
aF2.19975846959125
aF2.185718599091641
aF2.1725321567089066
aF2.1587419614291363
aF2.144288426671498
aF2.130318172590279
aF2.1163379729412948
aF2.101158005866035
aF2.0779865804709807
aF2.067155877461713
aF2.0561475181944737
aF2.0429811006859895
aF2.0265917454354625
aF2.0122680554475196
aF2.0098221256220756
aF1.999082042393748
aF1.9883682044472248
aF1.9615680041459145
aF1.941620654912277
aF1.9236279755451995
aF1.9056280981418379
aF1.8926409170505356
aF1.879161625879253
aF1.8635237742563338
aF1.8517194530623586
aF1.8367599313871996
aF1.822070173362692
aF1.8085140144148117
aF1.7942519214509642
aF1.776552207923434
aF1.7518212986227386
aF1.7324144571934694
aF1.7163505193738933
aF1.6980374289925773
aF1.6941027219750033
aF1.685560680732751
aF1.6735729395086152
aF1.662245685583378
aF1.6405820118500463
aF1.6245380821299622
aF1.6030903937280294
aF1.5909657735541118
aF1.5754829941069144
aF1.5646047183163045
aF1.5508927300968782
aF1.5352665383585984
aF1.5194059792086565
aF1.5060316250828625
aF1.489917123748129
aF1.4747633341954702
aF1.463055210447116
aF1.4507704836636788
aF1.4385653962708564
aF1.4258238518221489
aF1.4131685998087158
aF1.3989176184230665
aF1.3854903529895874
aF1.3693412054842495
aF1.3549231389095926
aF1.3428834304326318
aF1.330109467838735
aF1.3207648178452251
aF1.305886245486117
aF1.2926841415665868
aF1.2811998767248403
aF1.2703843295716188
aF1.2585655077450375
aF1.2469621643271371
aF1.2352379381849048
aF1.2150264029169855
aF1.2008416006325024
aF1.186530859040799
aF1.1739587442097084
aF1.160222294135103
aF1.1445571867923787
aF1.1356270434524505
aF1.1235860383892575
aF1.1115366303179084
aF1.0924799112444994
aF1.0785049398553153
aF1.0654483803129697
aF1.0552545797339503
aF1.043632496577303
aF1.0318757630522866
aF1.0155064822757767
aF1.0008957694870588
aF0.9869196314619582
aF0.9765492781291948
aF0.965479702311523
aF0.9533318942971057
aF0.9451626592416501
aF0.9347718492133339
aF0.9218030981163393
aF0.9103265102737331
aF0.891141710530992
aF0.87797954470032
aF0.8640767159899368
aF0.8511614692909011
aF0.8392900324844093
aF0.8253158807261605
aF0.8119162782219795
aF0.7909605131079944
aF0.774170251988669
aF0.7545255555056122
aF0.7365594185855119
aF0.723057042428549
aF0.7193275215998505
aF0.7039395412309455
aF0.6907690263960139
aF0.6787959396788388
aF0.6660560084133957
aF0.6502788120394344
aF0.629421144387102
aF0.6134136794846972
aF0.6062142830762012
aF0.5962199236540405
aF0.5837569657094461
aF0.5633434548318065
aF0.5449562204194927
aF0.5270287974617601
aF0.5102726743893722
aF0.5029963696848955
aF0.4963773430483436
aF0.4855894847128746
aF0.4723901357417321
aF0.4576726837311473
aF0.4447551231052386
aF0.5513048738447865
aF0.534379851729323
aF0.5187962742860416
aF0.50695347381232
aF0.4927130536398949
aF0.48666768997384163
aF0.4739165433742331
aF0.46187643954979507
aF0.45329840360138557
aF0.4423886596841929
aF0.4337861967364932
aF0.4235533521490445
aF0.3981568908888497
aF0.3803933378741893
aF0.36432421644846735
aF0.34826832735132207
aF0.3382677593806179
aF0.3236950949104487
aF0.31733886399677935
aF0.30577013682050463
aF0.29615477521519346
aF0.28523391677320575
aF0.27634061040481817
aF0.2660230983064855
aF0.25614295209315896
aF0.24172485801901022
aF0.22976678285164648
aF0.217803997295477
aF0.20164805179105222
aF0.19482211949311573
aF0.19193679011656178
aF0.18456794548566918
aF0.18315944974577444
aF0.17781034522581873
aF0.16909434749743235
aF0.16246057182235568
aF0.15002003392420282
aF0.13492914810211085
aF0.1235353921049463
aF0.11582039966218835
aF0.11174004006618188
aF0.10409280473297686
aF0.10568550325113199
aF0.09665833476862329
aF0.09039614251753667
aF0.0849992705903253
aF0.07560647874445536
aF0.06807142168114455
aF0.060655623358148905
aF0.05709903155566737
aF0.05111628263764903
aF0.04279036002230534
aF0.03645464887022446
aF0.03204720548166531
aF0.026372322256112204
aF0.025612687852578524
aF0.022010640973899057
aF0.01818315693484196
aF0.01435260303869558
aF0.0008624168448282815
aF-0.00553482142626531
aF-0.016076887570661835
aF-0.020287083842822212
aF-0.026544584461236614
aF-0.030014448733223828
aF-0.03525059503722876
aF-0.03373666861719918
aF-0.03477533086368863
aF-0.039834470402792296
aF-0.04350623125596116
aF-0.04680727031563213
aF-0.046278432857808596
aF-0.04811949066033995
aF-0.05341184624401142
aF-0.05756803027457026
aF-0.060976485867459754
aF-0.06228871758034281
aF-0.06760707368685216
aF-0.07106773011616431
aF-0.07219319317462004
aF-0.0749241749834751
aF-0.07460091862473141
aF-0.07705356683934174
aF-0.07909160826393162
aF-0.07850282904694499
aF-0.07956853188149533
aF-0.07966667666523293
aF-0.08041427734019822
aF-0.08014055501285879
aF-0.07418367579697051
aF-0.07208377210590451
aF-0.07010450909310532
aF-0.06812541234937301
aF-0.07399334187904745
aF-0.07881644579122009
aF-0.08051571567070602
aF-0.0757721654303486
aF-0.07197734477700686
aF-0.06806089667319883
aF-0.06780470134965345
aF-0.06643475124717767
aF-0.0674773947117744
aF-0.06754475090351102
aF-0.06433621626587373
aF-0.06265034629990869
aF-0.06096525512331623
aF-0.06354379643290352
aF-0.06583946446871052
aF-0.05790407325325554
aF-0.05223511964370202
aF-0.047894041835539455
aF-0.043817235779086125
aF-0.039574235720929246
aF-0.039396046609192104
aF-0.04208377938840906
aF-0.03186179972358842
aF-0.02659353260377803
aF-0.02611052641572112
aF-0.022545177842606248
aF-0.019733294593632572
aF-0.016606863203975003
aF-0.01306310323529121
aF-0.00968552462108943
aF-0.0017555761094732586
aF0.0029327130090287395
aF0.0017212588445711802
aF0.004320699217046017
aF0.005332678468545987
aF0.007411231806948276
aF0.02201417906896748
aF0.028671735786326626
aF0.04175819384345229
aF0.05102245716991761
aF0.05993586417916524
aF0.058387970497537627
aF0.06353391169474366
aF0.06791245994951606
aF0.07292208560864633
aF0.08403903976690605
aF0.09088626673063258
aF0.10114676079139873
aF0.10902650393963988
aF0.11896608304100167
aF0.12463300025632526
aF0.13211912885363597
aF0.14284542638044884
aF0.1514307128211565
aF0.1589865233990743
aF0.1635848522833005
aF0.1704539564755801
aF0.18326760756477958
aF0.19214545871931604
aF0.19989503590566124
aF0.21262639986218784
aF0.2227119998349922
aF0.23435896392389763
aF0.2470633649522566
aF0.25852412150816956
aF0.25953997116017147
aF0.26750805067340677
aF0.279910048085336
aF0.29697988015253546
aF0.3099222090407578
aF0.3289960230489679
aF0.34566482635731594
aF0.3614467875277845
aF0.3701575290100122
aF0.3762960726490978
aF0.38302878703732857
aF0.39211999725800906
aF0.4050777120320135
aF0.41557991379467185
aF0.42440195607916087
aF0.4343600734103845
aF0.4443870989210532
aF0.4628776976644695
aF0.4754977716344395
aF0.5012394913192865
aF0.5116294197417126
aF0.513754554900916
aF0.5232575480502527
aF0.5323457279346142
aF0.5417039396659301
aF0.5684195612310551
aF0.5836901342520271
aF0.6116923048291992
aF0.626203101834064
aF0.637977995902382
aF0.6495129667393363
aF0.6629615761963653
aF0.6816530931650466
aF0.6969899458566111
aF0.7133416955121193
aF0.7289571552246442
aF0.7445904006972187
aF0.7569731767396196
aF0.7642518675453347
aF0.7754505010725113
aF0.7936994347390034
aF0.8086587615200385
aF0.8212937779009837
aF0.8354004509758904
aF0.849994952751116
aF0.8677972612345743
aF0.8873938851297817
aF0.904585846139031
aF0.9050027945948045
aF0.9129043989948573
aF0.9343635127232476
aF0.9500146093642349
aF0.9716566887798157
aF0.9869431427400488
aF1.0001661760689453
aF1.0152951180324234
aF1.0265331764357906
aF1.038544770885787
aF1.0507359588448886
aF1.072054932255123
aF1.0879863347183327
aF1.1039011765383318
aF1.1198386937005729
aF1.1357564654805246
aF1.1516738869391776
aF1.1675872000844187
aF1.183518347768502
aF1.1994349093476038
aF1.2153761526545672
aF1.2312930008601861
aF1.2472141803109522
aF1.2631502006458262
aF1.2790620806584818
aF1.2949862219165915
aF1.3109112230542523
aF1.3268321158785015
aF1.3427541870562096
aF1.3586759079126192
aF1.3746129155166078
aF1.390528012115733
aF1.4064546693177151
aF1.422369192663806
aF1.4382961364923053
aF1.454212729918798
aF1.4701399922212046
aF1.486065120748429
aF1.5011574928587303
aF1.5082373141389782
aF1.5199222212796333
aF1.534354951438621
aF1.5497007967388055
aF5.777382715945287
aF5.79154805001464
aF5.826788950989335
aF5.832817474370933
aF5.834322706216015
aF5.842873308667552
aF5.851204488747547
aF5.859798469098595
aF5.875558854869446
aF5.889045059358125
aF5.903161940716493
aF5.915645442414723
aF5.929062431346603
aF5.931910499182467
aF5.941333655270964
aF5.950834421881185
aF5.965096383755971
aF5.990432619015854
aF6.008390986287004
aF6.02029439568777
aF6.0360821079641225
aF6.035695549230568
aF6.066049418645001
aF6.0698807143902425
aF6.078199317947201
aF6.0866243773671975
aF6.094840817465519
aF6.103189912989962
aF6.111682381080777
aF6.1205541725028745
aF6.128323979160237
aF6.138290228285648
aF6.147211321989895
aF6.156404252211021
aF6.165343348598249
aF6.174329267872289
aF6.18337957108336
aF6.192383304631407
aF6.201353373743579
aF6.21035469919174
aF6.2193464349616
aF6.228230777797925
aF6.238624886553663
aF6.248061430782254
aF6.257729123365567
aF6.267772160863789
aF6.2774670194612145
aF6.287098323893956
aF6.297558977349846
aF6.307607699334858
aF6.315572312205933
aF6.314371874984035
aF6.3055028892328595
aF6.303879621110893
aF6.303512835682274
aF6.302318317294985
aF6.298284843852122
aF6.296307124009284
aF6.285855716542013
aF6.278294475499448
aF6.27183144056217
aF6.26902171766724
aF6.264722140379937
aF6.259922582673131
aF6.256106083309967
aF6.255201342111507
aF6.256020114911601
aF6.25445048669637
aF6.2553984726374035
aF6.256484116802848
aF6.256426413777089
aF6.2557432040847045
aF6.256204935813779
aF6.256267763883516
aF6.2543380676047935
aF6.25245128529581
aF6.249579169858116
aF6.247511283053906
aF6.241604459492838
aF6.237015653877627
aF6.233876508087081
aF6.230352662697401
aF6.2292562826549105
aF6.226601659049949
aF6.224202691003885
aF6.222320541628182
aF6.220929714559095
aF6.218989704172891
aF6.215008562804336
aF6.212322358185957
aF6.208490964760273
aF6.20574388937513
aF6.202937001891914
aF6.201837891927108
aF6.199637360809139
aF6.201613406089985
aF6.201587591554656
aF6.201149627568093
aF6.195954984615221
aF6.1937308618893105
aF6.19164243296342
aF6.192755447253319
aF6.191980860532888
aF6.187380781282507
aF6.185818310934615
aF6.184563803006402
aF6.182963526441418
aF6.1817508794863745
aF6.179552328519948
aF6.1778161323533825
aF6.176066291448052
aF6.174960287816086
aF6.174539882413759
aF6.173427153942381
aF6.172336126091656
aF6.169743173680796
aF6.16842767215045
aF6.16692244366266
aF6.168810985901243
aF6.168139510907991
aF6.167640708483669
aF6.172287794990858
aF6.171098587405483
aF6.171398011530605
aF6.170725457328791
aF6.17037160642953
aF6.168508682668126
aF6.168827825772428
aF6.168521877951371
aF6.169864072934228
aF6.16862005673134
aF6.168724572767699
aF6.16859236965714
aF6.16871043717736
aF6.1682499788483245
aF6.168037817908606
aF6.167178161262028
aF6.1667526556505
aF6.166538193967332
aF6.167704554311888
aF6.168032627320379
aF6.16631587290124
aF6.165865427199417
aF6.165921113150896
aF6.166059047186427
aF6.165954937797486
aF6.165112970646829
aF6.164606222637926
aF6.16416381994629
aF6.165067110356528
aF6.165309636126864
aF6.165432651982316
aF6.165384741068048
aF6.165279856856314
aF6.165066072414886
aF6.164958470761982
aF6.164850896431046
aF6.16515271690968
aF6.16514782029577
aF6.165176425167354
aF6.165040149936955
aF6.165009488005651
aF6.1649788349647805
aF6.164973073555372
aF6.164954712758055
aF6.16320422659079
aF6.1623464533141465
aF6.161619672180416
aF6.1621671269268035
aF6.16140141504495
aF6.160922926065892
aF6.162685593188894
aF6.162034197538011
aF6.161929235766491
aF6.16290228448454
aF6.16315442445009
aF6.161766012848298
aF6.162718752236126
aF6.161826866884494
aF6.1615630158815975
aF6.162854882510919
aF6.161793599346514
aF6.162551924813217
aF6.162718649631066
aF6.162888260667105
aF6.161787009924146
aF6.1625093403246565
aF6.16263197832787
aF6.161808029509267
aF6.161610536613603
aF6.160974821228896
aF6.159628536369123
aF6.1589287728752
aF6.162103953125806
aF6.160380256529154
aF6.159842586020679
aF6.159402285099843
aF6.161697114126204
aF6.160539195291104
aF6.159965450491946
aF6.159615066462303
aF6.161613081134924
aF6.160419037623535
aF6.160223242015837
aF6.1599218608765
aF6.16112262661217
aF6.15985284207512
aF6.159508631990104
aF6.159164798912023
aF6.160732525121718
aF6.161066869102085
aF6.159785604311044
aF6.161151829328324
aF6.159970684484996
aF6.160873209843073
aF6.161163500345838
aF6.156841239533041
aF6.159267118579515
aF6.160360052397816
aF6.160986214218648
aF6.160410759837392
aF6.15988156557907
aF6.159720608590368
aF6.159614521008813
aF6.159464388513224
aF6.159216338540265
aF6.159030163808344
aF6.1596116415034246
aF6.1593701641498795
aF6.159576819465699
aF6.159649695855622
aF6.159722634470034
aF6.159795401420631
aF6.159242091027398
aF6.159503908988981
aF6.159532572856579
aF6.159614731444675
aF6.159663476104622
aF6.159169645615074
aF6.159039400523369
aF6.158090496796952
aF6.1580721386029555
aF6.15783138742622
aF6.158145135687836
aF6.158099055235752
aF6.156698085252951
aF6.156217710976671
aF6.156503589698224
aF6.1570619194365195
aF6.157067894932562
aF6.157217897128348
aF6.15723341844124
aF6.157200622920998
aF6.157207469496253
aF6.157009858754635
aF6.156942280997486
aF6.156949366586924
aF6.15698997600748
aF6.1569811361628455
aF6.156972288393288
aF6.156924245848765
aF6.156962550558262
aF6.15697083363104
aF6.1555711701686775
aF6.155356325555193
aF6.154932617890165
aF6.154532493679711
aF6.153257304563407
aF6.153501504405057
aF6.153922416624901
aF6.153956000908489
aF6.153657838909461
aF6.153664038690336
aF6.153783694548808
aF6.153813605908999
aF6.153694114171613
aF6.153627167003332
aF6.1535856931757795
aF6.153652823114331
aF6.153649440285033
aF6.153614265099604
aF6.153596566329929
aF6.1535671788647806
aF6.15356192610035
aF6.152817275267487
aF6.152685867077632
aF6.152456885776588
aF6.152682626504674
aF6.15285233986433
aF6.152882392507228
aF6.152353028076684
aF6.152204626920031
aF6.152291984730889
aF6.152239752291926
aF6.151828767541412
aF6.151696875833559
aF6.151541422154138
aF6.151972534024067
aF6.152015972005757
aF6.151962355758455
aF6.15197707821178
aF6.151968390771311
aF6.1519440135377375
aF6.151941573934939
aF6.151911339062593
aF6.151900607100359
aF6.151889865669751
aF6.151879142250038
aF6.151103315142088
aF6.150781586163858
aF6.150508117670729
aF6.150776741442428
aF6.150959371748257
aF6.150979742185119
aF6.15098038341795
aF6.150993452982859
aF6.15097261264431
aF6.150974394035501
aF6.151007767735731
aF6.151024494277214
aF6.151009820686273
aF6.151015266492899
aF6.150939827402638
aF6.150922814280349
aF6.1508860595898485
aF6.150884566433965
aF6.150869835239302
aF6.150855065181423
aF6.150877764712526
aF6.150876401428499
aF6.150810906231888
aF6.150849373553307
aF6.149421980335916
aF6.149243523416741
aF6.148851645432407
aF6.149347721235435
aF6.1496612964745
aF6.149624488405556
aF6.149652068077945
aF6.149679650397939
aF6.149519768759108
aF6.149528952517185
aF6.14950784660075
aF6.149538143570383
aF6.1495355270678935
aF6.149534704394738
aF6.149532917441604
aF6.149531127078083
aF6.149529341297492
aF6.1495275550771975
aF6.149525766712006
aF6.149523980538184
aF6.1495221938352875
aF6.149629044648658
aF6.149564371135909
aF6.149556136380109
aF6.149547862907888
aF6.149550658457761
aF6.149545518578172
aF6.148507305449752
aF6.148421722271744
aF6.148606149833023
aF6.14854898506075
aF6.148297905953752
aF6.148405366989786
aF6.148522872302641
aF6.148547719829039
aF6.148572756767628
aF6.148552669574849
aF6.14842252938875
aF6.148374583902908
aF6.148326551085718
aF6.14827858410293
aF6.14867536463773
aF6.148817586402598
aF6.148562679661603
aF6.148358061516586
aF6.148628396692358
aF6.148709013458861
aF6.1485172421709615
aF6.148500009236351
aF6.148482912732558
aF6.1474351109749925
aF6.14726524253291
aF6.147420376334406
aF6.147342229283975
aF6.147174211409528
aF6.147312651813439
aF6.14730507215306
aF6.147379494220203
aF6.147219074750722
aF6.14717154263147
aF6.1471240213496054
aF6.147173794343274
aF6.14730058215935
aF6.1473363389810975
aF6.14737645698809
aF6.147235537636178
aF6.147206770731523
aF6.147177972924167
aF6.147149209069499
aF6.14736229692312
aF6.147416782164061
aF6.147471245074941
aF6.147525728790903
aF6.146307044672376
aF6.146137864677517
aF6.146291580247397
aF6.146207073768963
aF6.146512451127962
aF6.146573065421785
aF6.146633839454979
aF6.1467102660114845
aF6.146771865835162
aF6.146610069877483
aF6.146591001239438
aF6.1465719180996565
aF6.14655283843266
aF6.146533775900609
aF6.146584054563485
aF6.146590825042155
aF6.146576623307009
aF6.146576404665943
aF6.146576069346931
aF6.146584042782599
aF6.146586415323083
aF6.146600747095048
aF6.146608029954379
aF6.144970783405544
aF6.144932419983349
aF6.145238189876448
aF6.145477706840168
aF6.1455464894977645
aF6.1454685282134225
aF6.145459096401959
aF6.145464780322477
aF6.14546117763042
aF6.145463892865824
aF6.145427309026693
aF6.145413966362282
aF6.1454006523102285
aF6.145385621497178
aF6.145369793408065
aF6.145485577176415
aF6.145532292830171
aF6.145543248474577
aF6.145538510176497
aF6.145303783804114
aF6.145203680083497
aF6.145376782867047
aF6.145514537240859
aF6.145569961990147
aF6.145487475032811
aF6.144649216584114
aF6.144744977173446
aF6.144691284723088
aF6.1445909678752475
aF6.1447460482870735
aF6.145038334200046
aF6.145173354307325
aF6.1451877615207895
aF6.145280175787694
aF6.1451558623080595
aF6.145146799245056
aF6.145155582891314
aF6.145071380732781
aF6.1450464137560115
aF6.14502140294798
aF6.1450541731829915
aF6.145052874233167
aF6.1450515748312675
aF6.145124787254016
aF6.145154189533132
aF6.145263418091359
aF6.14527811547211
aF6.145164983575711
aF6.145133166430112
aF6.1451013634747325
aF6.143626599993783
aF6.143478517287099
aF6.1430815752886065
aF2.527475795488646
aF2.52710428112016
aF2.5272355705130014
aF2.5272105815212433
aF2.5272057724336165
aF2.5272005346400204
aF2.5271878441754514
aF2.5271751392871304
aF2.527162441432928
aF2.527149747870299
aF2.527181649924438
aF2.5271901028192296
aF2.5271867126236462
aF2.5271829750808275
aF2.527183744127718
aF2.5271845125735846
aF2.527124472285408
aF2.5270998837830287
aF2.5271941560085693
aF2.5253661482528753
aF2.52489240051412
aF2.524276948593724
aF2.523849841911219
aF2.5253501997334227
aF2.525728461999954
aF2.5260609605664572
aF2.5288308805523374
aF2.5265713339534024
aF2.5262591762372697
aF2.526043456878294
aF2.525767593837243
aF2.5331515323087763
aF2.5354038388817113
aF2.537616942843628
aF2.53508209477192
aF2.535491014612709
aF2.5384554263754184
aF2.5519599643187956
aF2.558286859452753
aF2.5687342558292103
aF2.579222978919259
aF2.5879913707343762
aF2.595124474886276
aF2.5985218796405185
aF2.6031975684584445
aF2.6087966726615894
aF2.611372600874348
aF2.624535517557194
aF2.6328005157751515
aF2.6404247297094776
aF2.650249826420962
aF2.6597885329474136
aF2.668679741006514
aF2.6833863298784673
aF2.68898676708308
aF2.697215080699904
aF2.7057552121356796
aF2.718374416165534
aF2.7310336315918167
aF2.746959567323272
aF2.7603349221928397
aF2.766650480825992
aF2.7760900764615
aF2.7863621821079287
aF2.793640414009428
aF2.8105447339794627
aF2.8233887505236144
aF2.8392159388683917
aF2.857133807408654
aF2.8689392179041664
aF2.882747713907664
aF2.8941607848797055
aF2.9071040927809664
aF2.9200093396137112
aF2.9329182258896145
aF2.9435910295311674
aF2.956098520639222
aF2.97362495101502
aF2.9890444044780047
aF3.003552840574061
aF3.019329273008041
aF3.0329447720478373
aF3.0504918047370584
aF3.0663364715378396
aF3.079478604791376
aF3.0862267072797867
aF3.09781987145291
aF3.107385839440982
aF3.1235039458590124
aF3.136589844146166
aF3.1504895638049697
aF3.1638296980107503
aF3.178341009903542
aF3.1920366337530637
aF3.204686108440931
aF3.217276093917199
aF3.2288070720862136
aF3.240722810033376
aF3.260930151834184
aF3.277118253878323
aF3.2867906044773405
aF3.2938094483962828
aF3.308532602497187
aF3.3212944427752586
aF3.341706171527789
aF3.350326615647029
aF3.3618839535588934
aF3.3740307293451934
aF3.3868459750174975
aF3.398539741910183
aF3.4090295238124404
aF3.4198578319662727
aF3.4310290298139283
aF3.4422142325923804
aF3.453366567976547
aF3.476974124771106
aF3.492962606936295
aF3.5091311294039986
aF3.520226882860167
aF3.5344198052898634
aF3.551913838646969
aF3.562287040185917
aF3.58035886885212
aF3.5960379049138163
aF3.605426451528103
aF3.618789265083837
aF3.633847746522695
aF3.6480381119336127
aF3.662077906979387
aF3.679921942663826
aF3.6974957143983413
aF3.7139581593264643
aF3.7271255309070046
aF3.7423647714285275
aF3.7576182282571122
aF3.758768676089608
aF3.777573327705762
aF3.795244435699627
aF3.807823014826971
aF3.8218619446065922
aF3.832550379362102
aF3.8453755328792543
aF3.866662465982632
aF3.879039407763215
aF3.893440232805248
aF3.8997845046577204
aF3.914806895062756
aF3.9281471787961304
aF3.9383660566589827
aF3.9506070258402985
aF3.966600031740028
aF3.9851962592930326
aF4.000720158795666
aF4.010481956300655
aF4.015600007302032
aF4.026156795989737
aF4.036890249817263
aF4.053895759356797
aF4.067233474363245
aF4.0786624934491265
aF4.091296289048605
aF4.100457885020349
aF4.10968904476157
aF4.120350359350935
aF4.131543531273142
aF4.147696486610939
aF4.1607057225424695
aF4.172639244511819
aF4.180320912673708
aF4.1909380509913365
aF4.203950098122819
aF4.215433032727722
aF4.225319339691669
aF4.235769101380476
aF4.248568390883712
aF4.261042078262726
aF4.272849483957663
aF4.290378266304608
aF4.299190988307347
aF4.3065596916744155
aF4.316250887602143
aF4.327378164222775
aF4.34181960398889
aF4.3540130831933475
aF4.368244906686364
aF4.381152821912154
aF4.386607881827237
aF4.3919439339538044
aF4.400641726356767
aF4.415346717786955
aF4.425582939585606
aF4.436226977394233
aF4.43917614088924
aF4.44530279041369
aF4.452749525188972
aF4.457822260784948
aF4.464584427734623
aF4.4750585446750355
aF4.483224968915762
aF4.489498598380957
aF4.498746742739006
aF4.506834646624034
aF4.511187394362589
aF4.52258629666571
aF4.531461925845154
aF4.5438826683114
aF4.552869868075219
aF4.558935429854391
aF4.566767370361717
aF4.573907400436856
aF4.581559182468734
aF4.5874567075839865
aF4.594602762728531
aF4.60154995544307
aF4.6053629408119
aF4.6111198648535066
aF4.616999402603589
aF4.622670332514064
aF4.628409278043398
aF4.6341797956664665
aF4.639934533766297
aF4.647276052634015
aF4.655196553845733
aF4.661501074752032
aF4.660266861688769
aF4.664032095990951
aF4.667774244045105
aF4.6747231410752255
aF4.679593045568122
aF4.684388251827902
aF4.6922903899801724
aF4.698667512333292
aF4.698577973351269
aF4.701742163315811
aF4.705365251665953
aF4.711192508760054
aF4.708783784480484
aF4.710582565265892
aF4.714119652422078
aF4.717841319762723
aF4.7184601402727955
aF4.72015767019325
aF4.7183019332479175
aF4.72046280075518
aF4.718403105768309
aF4.718086170201139
aF4.715062349601395
aF4.71485138544979
aF4.713108866088283
aF4.71184002514219
aF4.713332018152724
aF4.714357183597222
aF4.70960247664533
aF4.707494999609562
aF4.702328173984666
aF4.7000761549447905
aF4.6984769350734625
aF4.696237753299619
aF4.694933189556146
aF4.691577741793475
aF4.689088236082483
aF4.684009090182848
aF4.680664467799685
aF4.673837437302907
aF4.664556332753101
aF4.657880621753463
aF4.654509897945309
aF4.64946908330012
aF4.64941199454276
aF4.640281209495724
aF4.634417204340692
aF4.628732310737922
aF4.622935932140493
aF4.61488401902491
aF4.6082408130326185
aF4.601667319603082
aF4.595099897919932
aF4.5862263986320695
aF4.579179579288173
aF4.566563427653267
aF4.554732271276988
aF4.5442204096856695
aF4.536694928369264
aF4.530826871838087
aF4.520096298251373
aF4.510798934348051
aF4.505567810435975
aF4.4967290858896245
aF4.488799900933459
aF4.473328800298646
aF4.461432569374454
aF4.450157002267887
aF4.447100854157284
aF4.439684911085564
aF4.424796508670298
aF4.413501143744548
aF4.403508532826251
aF4.392685988050314
aF4.39370021944103
aF4.380675173014312
aF4.371237141611923
aF4.35722244204577
aF4.342248596162231
aF4.329627321339441
aF4.316758978542868
aF4.312089372359914
aF4.301159349945098
aF4.290868045579193
aF4.281661554185501
aF4.27137480385165
aF4.261276864541861
aF4.240664657838741
aF4.2267163341909395
aF4.220984646576547
aF4.209333403346258
aF4.197764094927385
aF4.182296510963638
aF4.170625815209258
aF4.158285712739252
aF4.143460760277804
aF4.130287884705643
aF4.122159816822957
aF4.106133878812303
aF4.0928022849234384
aF4.082756731363514
aF4.070495057254293
aF4.048881323383258
aF4.033098332134733
aF4.017528507703578
aF4.002556062844936
aF3.9881849180004885
aF3.978299472537071
aF3.961165254820971
aF3.9461333903940483
aF3.9324300805248535
aF3.9144546312068518
aF3.898278951078554
aF3.875469034559918
aF3.861129567295646
aF3.8442494015654036
aF3.833023610944683
aF3.817787670644754
aF3.8050534480372464
aF3.7909398027257075
aF3.780869304928986
aF3.760768851434155
aF3.744972448649826
aF3.713793648380198
aF3.698678033136097
aF3.688150063051387
aF3.674068606076665
aF3.6593589916536953
aF3.650952385644158
aF3.638564612228702
aF3.6255547398134853
aF3.6008487313064688
aF3.583214849286094
aF3.5548182755490267
aF3.540572007634618
aF3.5276920975573627
aF3.5114481272341735
aF3.4991967859322113
aF3.4844138330625873
aF3.473074149461477
aF3.4616748191018134
aF3.44900527977336
aF3.4321356674144705
aF3.4178723539761102
aF3.3993739933113534
aF3.3808671633061866
aF3.364028622616773
aF3.3441055486633355
aF3.3262895877308902
aF3.3097186706368382
aF3.2956272315025257
aF3.2794290737714604
aF3.2644398493821827
aF3.2502598262247013
aF3.2322584133933776
aF3.2156931871174916
aF3.2080853731160577
aF3.196879622791258
aF3.17946027810862
aF3.16467598153514
aF3.1463681469651306
aF3.1293105576820954
aF3.1147115137870296
aF3.0991318639510546
aF3.0835456073261045
aF3.0848143478442833
aF3.063039630191008
aF3.0475499921383786
aF3.022623529624201
aF3.0026101132329677
aF2.9858243390486203
aF2.967752791088178
aF2.9551422698965846
aF2.942408401488038
aF2.927671188474818
aF2.9078764347340016
aF2.891825340032371
aF2.87710663034263
aF2.858089431800562
aF2.840860271691114
aF2.8306689821723996
aF2.815979283045193
aF2.8040530223484526
aF2.790281184230138
aF2.774128944081928
aF2.7523082067831965
aF2.7346955524688465
aF2.704883940754343
aF2.6909822578745035
aF2.672216040005162
aF2.661633905302043
aF2.653017888275907
aF2.640154871525541
aF2.6301161203755252
aF2.6152678657532813
aF2.6020988850809217
aF2.5889835169788475
aF2.5685942085462066
aF2.5500409521295873
aF2.5329442685576473
aF2.5185757993843088
aF2.510668696162337
aF2.497939641692326
aF2.4792049757129875
aF2.4645673372359416
aF2.447195972182285
aF2.4318162319025967
aF2.4146679722172695
aF2.4033684314520127
aF2.4451347129139562
aF2.424157518591167
aF2.4127283036097453
aF2.3935528059312756
aF2.376871427836774
aF2.3655320401300597
aF2.3487243596681995
aF2.3280413483255145
aF2.309898363019133
aF2.293693094853936
aF2.2864401092557203
aF2.2732021837166205
aF2.260125441150825
aF2.246947662631612
aF2.2344377020681105
aF2.22080211715214
aF2.207567910488437
aF2.1840456485488953
aF2.1678364658202622
aF2.1513401118504976
aF2.134791116574093
aF2.1187818246094907
aF2.102506700710308
aF2.0896068903877176
aF2.0745854354184083
aF2.059547203117041
aF2.053772475318414
aF2.040831051177783
aF2.026495557957652
aF2.004638009073427
aF1.9932506460014756
aF1.9792460375499403
aF1.9669649096841808
aF1.9460429499138958
aF1.9324183429594846
aF1.9172548357122188
aF1.9072556178290117
aF1.8936032702994523
aF1.8815744091502844
aF1.868820266575797
aF1.851780266390319
aF1.8374295070450235
aF1.8243516351494713
aF1.8114713632579382
aF1.7996954623868866
aF1.7840099667411369
aF1.7697841877852623
aF1.7578238560575963
aF1.7444266063558576
aF1.736345567492079
aF1.726258324422236
aF1.7081623330936722
aF1.6944630417997277
aF1.6758683413106972
aF1.665664241437464
aF1.6563450188749573
aF1.6447514170754487
aF1.6228675033209785
aF1.6071607625337294
aF1.5905983353605637
aF1.5819825758333725
aF1.5686163167073741
aF1.555208785873519
aF1.5418092923054032
aF1.5295940961648546
aF1.507363670983263
aF1.4906245550146466
aF1.4750699559601892
aF1.4643558852122882
aF1.4457040974150668
aF1.429401263493441
aF1.413395576264658
aF1.4007253531414021
aF1.382326598846744
aF1.365858338796633
aF1.3493890906272068
aF1.344824970854573
aF1.3290003947407618
aF1.3148495747706443
aF1.2962298260159744
aF1.2721278792515858
aF1.2459035659319284
aF1.223400575957273
aF1.20271049049404
aF1.189439815084911
aF1.1675331351988814
aF1.1475200282980602
aF1.132375363923128
aF1.1140649728912433
aF1.0923312376561818
aF1.072405503254686
aF1.0580821872024375
aF1.0448095877376355
aF1.0190425430320433
aF0.9984412398660638
aF0.9810212234656224
aF0.9652198539786954
aF0.9473107854817491
aF0.9413799493375239
aF0.9230545867723434
aF0.9072962177671144
aF0.8913075242787312
aF0.8754867535845279
aF0.8566473935426668
aF0.8315402924434061
aF0.8117347866253788
aF0.7840142895214159
aF0.7616308018192719
aF0.7573941504879571
aF0.739919886198763
aF0.7224457616855118
aF0.713550337273068
aF0.6955613134197345
aF0.6793208999997591
aF0.6528447504050929
aF0.6293144808660138
aF0.6078619785355237
aF0.58303843259613
aF0.566412101022409
aF0.5461979174042171
aF0.5303083962188586
aF0.5233350784204867
aF0.5088672022318115
aF0.5025036116257422
aF0.49073118109414904
aF0.47660195181498044
aF0.4641258981654446
aF0.4471386714448651
aF0.4332732086538844
aF0.41045184640245513
aF0.39109559495125645
aF0.37377833682298367
aF0.3497014484823391
aF0.3378842907937616
aF0.3191815075142128
aF0.3052881809410901
aF0.28940207986433863
aF0.2759561692000605
aF0.26101713615016964
aF0.24719626756297286
aF0.22799841881135885
aF0.21149428326195752
aF0.19529810420308857
aF0.17988385415701513
aF0.16629187686850555
aF0.15115823261417072
aF0.1311028277659001
aF0.12281407091672714
aF0.10915366508643443
aF0.10104469261346205
aF0.08249324908646694
aF0.06696905133750031
aF0.051952965583225375
aF0.038984942211759854
aF0.024718567325259233
aF0.0175461277458262
aF0.002273358506392764
aF-0.0110864603751204
aF-0.026011772764213514
aF-0.03993505061234748
aF-0.055156939758323476
aF-0.06952275792680107
aF-0.0828838181908923
aF-0.09694066032692528
aF-0.11018408867807727
aF-0.127410146427145
aF-0.1425586852599926
aF-0.15326841406651914
aF-0.16677270502493935
aF-0.17654308322422863
aF-0.18880584435455428
aF-0.20068815551648778
aF-0.2128267823241924
aF-0.22793251120446867
aF-0.24289501433831728
aF-0.253433152993064
aF-0.2658236075578835
aF-0.27821998819710836
aF-0.28365485166515847
aF-0.295622275672794
aF-0.30668003629678986
aF-0.32292834141951077
aF-0.3383644213424102
aF-0.3518970020223744
aF-0.3638180347158153
aF-0.3727343668885288
aF-0.3832314823027465
aF-0.3941568080446709
aF-0.39860911463100024
aF-0.41349557907629286
aF-0.42465251922520153
aF-0.436462565342973
aF-0.44971725620106173
aF-0.45895436484122676
aF-0.4697654361724649
aF-0.4774565031655519
aF-0.48346216800659636
aF-0.49166809199946193
aF-0.5006086212199657
aF-0.5090965389175891
aF-0.5150692937067671
aF-0.5187656278885637
aF-0.524407657066009
aF-0.5320156565363539
aF-0.543059605301152
aF-0.5457471683369184
aF-0.5513905767199303
aF-0.5534309244825695
aF-0.5683897255776682
aF-0.5770455670596528
aF-0.5836356656291548
aF-0.59298419098782
aF-0.5973079485892543
aF-0.6038572250716305
aF-0.6069416247875538
aF-0.6144513779707476
aF-0.6206358764990642
aF-0.6228819114292824
aF-0.6285643240428224
aF-0.6337558693091895
aF-0.6394537591003738
aF-0.6424393367798379
aF-0.6493811032759412
aF-0.65490531567797
aF-0.6576667617585571
aF-0.6622982975599002
aF-0.6664278300988046
aF-0.6732448466902917
aF-0.67859304087182
aF-0.6858941412450977
aF-0.6918836127505649
aF-0.6925753750926643
aF-0.6963830419408775
aF-0.6983153224844908
aF-0.6994216507336485
aF-0.7016744270082996
aF-0.7048250929893422
aF-0.7022632122314705
aF-0.7027657377378707
aF-0.7026052440499808
aF-0.7049761722397148
aF-0.7086005802556916
aF-0.7108574906533369
aF-0.717241690116063
aF-0.7209564914246962
aF-0.7246709287606916
aF-0.7283858043494544
aF-0.7320989714952231
aF-0.73581152211591
aF-0.739526939949624
aF-0.7432405824882244
aF-0.7469552203805718
aF-0.7506672361843214
aF-0.754381316975691
aF-0.7580944544094073
aF-0.7618094117063143
aF-0.7655229353967079
aF-0.7692368453437779
aF-0.772952812850455
aF-0.7766668787857989
aF-0.7803788425934575
aF-0.7840947358200041
aF-0.7878094999885712
aF-0.7915221026053509
aF-0.7952367330696837
aF-0.7989485334610555
aF-0.8026645232517722
aF-0.8063791017200148
aF-0.8100935539120369
aF-0.8138067210578046
aF-0.8175234387937969
aF-0.821235825998198
aF-0.8249491639882653
aF-0.8286621528617215
aF-0.8323766719058594
aF-0.8360893190907164
aF-0.8398053163094459
aF-0.8435167007320881
aF-0.8472329505032605
aF-0.8509475809675942
aF-0.8546607481133619
aF-0.8583734027262309
aF-0.8620911752400748
aF-0.865801408320698
aF-0.8695168038703733
aF-0.8732296590395943
aF-0.8769449060290078
aF-0.8806571446731479
aF-0.8843754222918769
aF-0.8880875049477432
aF-0.8917986368179434
aF-0.8955129107376512
aF-0.8992287891081729
aF-0.9029437909731581
aF-0.9066554650883085
aF-0.9103730370457979
aF-0.9140824307609523
aF-0.9178016963054101
aF-0.9215127316114411
aF-0.9252298281760987
aF-0.9289417548436911
aF-0.9326552488220332
aF-0.9363701986909265
aF-0.9400836926692677
aF-0.9437957159010311
aF-0.9475114679953296
aF-0.951227517210151
aF-0.9549413603051042
aF-0.9586532126925671
asS'yaw'
p5
(lp6
F0.0046458486831659025
aF0.004650412429834969
aF0.004653605735689532
aF0.004656801528462736
aF0.004659999910444332
aF0.004636530521172034
aF0.004631633020675353
aF0.004600047094311495
aF0.004582526624286237
aF0.004596786118976373
aF0.004596250948470836
aF0.0046295718660374855
aF0.004636514395775419
aF0.004646371136706686
aF0.004656564065441754
aF0.004643341159013492
aF0.004642155009675406
aF0.0046390087524816204
aF0.0048455352925078216
aF0.004943084460144592
aF0.004331159691200584
aF0.004160905807344531
aF0.0037876376558176705
aF0.0035501395846309004
aF0.004000243446841076
aF0.004244990655235274
aF0.0043236965151791885
aF0.004085863002077521
aF0.003578746437446887
aF0.0033512777509920612
aF0.0030059675496485385
aF0.0028149348339153247
aF0.00258063212101226
aF0.0024567151277925404
aF0.0027301008569538317
aF0.0027594903036866026
aF0.0034822451607614425
aF0.0036361260173467824
aF0.003853786026235372
aF0.0033363608710030523
aF0.003281289204637931
aF0.0034974407274002616
aF0.003973363372393502
aF0.004193730299155239
aF0.0037856280327252605
aF0.0037780443723361328
aF0.003503484697347465
aF0.003406414021908978
aF0.003149914742823668
aF0.003759392229554479
aF0.003953108714303577
aF0.004113161535165995
aF0.00415082652344368
aF0.003910021290844309
aF0.003848268030358033
aF0.002839268550940432
aF0.002429508567164651
aF0.0029137682430150622
aF0.003197089306858713
aF0.003425615365354616
aF0.0035624615262316115
aF0.004919040164621774
aF0.005698747070719357
aF0.006360573748197926
aF0.005858476176641229
aF0.005344029070062006
aF0.005303095375207994
aF0.005256259180287652
aF0.005433453626939242
aF0.00381645075929825
aF0.003287100890169431
aF0.0030403468920278055
aF0.0029029583538437366
aF0.003378210350772191
aF0.003498251849758737
aF0.004256440440385936
aF0.004254941011885053
aF0.004463543344002398
aF0.003652763906052291
aF0.003402244012750848
aF0.0032257747862789996
aF0.0026900514658756147
aF0.0027543908825364695
aF0.0026086009477243816
aF0.0030442235105141995
aF0.003783492345209401
aF0.004126489267629012
aF0.00446993885570037
aF0.004735469989485361
aF0.004175426667396911
aF0.003725611297038128
aF0.003548145095586164
aF0.0031490471607403766
aF0.002890362591572247
aF0.0034303092722887418
aF0.003821876932106386
aF0.003954940942024709
aF0.00454642332534273
aF0.004628573624650428
aF0.004831688363425864
aF0.005393945572009089
aF0.005732609054322641
aF0.005555704997124354
aF0.0057178746297274685
aF0.005185073006440019
aF0.005026700296776089
aF0.004916449410444966
aF0.0042305268758099455
aF0.003909437346460379
aF0.004269786075520474
aF0.00527490802806735
aF0.0053357483000254155
aF0.005539910297955319
aF0.005911227343751968
aF0.005212227686652278
aF0.005076876095684541
aF0.004601365519859547
aF0.0043583543351760345
aF0.0050343008864781845
aF0.00491821261324001
aF0.004919797979819021
aF0.005589388685994435
aF0.005311458188148817
aF0.00533169148012598
aF0.005263474489393284
aF0.005141403790388597
aF0.0050763297870677635
aF0.005364014844187132
aF0.006114644957526691
aF0.0050093627816320315
aF0.004664763177159162
aF0.0044733950292198295
aF0.0050051214119173565
aF0.0051047332017751645
aF0.006202727931245844
aF0.007193756830795013
aF0.00791807749058545
aF0.007542508579479673
aF0.007863623471176136
aF0.006463228046967519
aF0.005573894611176845
aF0.00511569899153142
aF0.0041989475921144995
aF0.0036046514243555
aF0.0030027419129519473
aF0.013595868957723429
aF0.005646375519585428
aF0.0037152887653246454
aF0.0038558039139622233
aF0.0026915144267756538
aF0.002424438570849128
aF0.0032113479879160617
aF0.003752163606672814
aF0.003870316813699826
aF0.006294880067401697
aF0.007086116501326152
aF0.007977758276381612
aF0.007299493296889985
aF0.0064808626977465285
aF0.006322550295958251
aF0.0064691240950887465
aF0.0064216819084867245
aF0.007803186670599847
aF0.00733609703196265
aF0.007439180199228892
aF0.0075398988438847145
aF0.007005648790431867
aF0.007312388326576182
aF0.00737707589723905
aF0.007529832137697236
aF0.007019840426783553
aF0.00752236188948262
aF0.007677947172110608
aF0.00782969707527595
aF0.0086114686061689
aF0.009560646120709816
aF0.01022997190733595
aF0.009202780102545768
aF0.00759566842500129
aF0.006942540289831906
aF0.00763466767074654
aF0.007235789537900844
aF0.006962985050706432
aF0.007301299560612237
aF0.008199362651116999
aF0.008555656146434948
aF0.009667479057853832
aF0.010166615542569535
aF0.010738879954760609
aF0.009715820537659523
aF0.00947404249766704
aF0.00965658152117843
aF0.009689093327669547
aF0.008925829151601438
aF0.010369856898832703
aF0.010821254385139915
aF0.011014529183836464
aF0.00987498625248799
aF0.008687514289505009
aF0.007990400313475674
aF0.008911395141979936
aF0.008550745214819314
aF0.008327815865935322
aF0.009386114857131212
aF0.00923565915442478
aF0.009310369829671818
aF0.00990157480427993
aF0.009776015377017899
aF0.009882285764886149
aF0.00948020185157397
aF0.009440528599067823
aF0.010339048433405534
aF0.009336244311794216
aF0.0097831551074785
aF0.009877756023403397
aF0.009820529748488734
aF0.009856116489837193
aF0.00979443485596774
aF0.009923314141450042
aF0.009437439263948296
aF0.00923819630945539
aF0.009017928375727473
aF0.008810894464727137
aF0.010218281753100265
aF0.00973288524445547
aF0.009824159864689694
aF0.009869818375317503
aF0.00970964401330022
aF0.009680174993678323
aF0.009941069976326405
aF0.010004533480357672
aF0.010142174867692769
aF0.00990978655881551
aF0.009919139021860797
aF0.00989998273253849
aF0.00997155088242123
aF0.00998566396618307
aF0.009438050424171382
aF0.010334320302990724
aF0.010597287166747689
aF0.009104922078243252
aF0.008664671678182944
aF0.008310846772494761
aF0.009103810446152532
aF0.008670499190902124
aF0.008503553644689077
aF0.010108974931573244
aF0.009621693798190245
aF0.009663387181849625
aF0.00901306600889373
aF0.008820137437887733
aF0.010257569619017217
aF0.011366615844640281
aF0.010519324095136175
aF0.01056335179175215
aF0.010607691286316554
aF0.009769897547968084
aF0.00957688298155744
aF0.010943054451419005
aF0.00969337081243469
aF0.009332331773618313
aF0.008286919547771427
aF0.007754698045716609
aF0.009200737946362704
aF0.009613446797600027
aF0.009496186077426166
aF0.010907136024539105
aF0.01162428498553415
aF0.011161406450980873
aF0.010476711225062206
aF0.009995175534768077
aF0.009519993377726287
aF0.009175944198011914
aF0.008186102249515938
aF0.008479591919201295
aF0.008262354290573409
aF0.009597447243591134
aF0.009872110819252633
aF0.010389051331001363
aF0.009756115703013869
aF0.009820654368446926
aF0.009818705612016213
aF0.010592457753120857
aF0.010625239233858618
aF0.01051318603612683
aF0.01055778545491302
aF0.00945540257141237
aF0.008953346212528303
aF0.008530133835567742
aF0.009860015663686543
aF0.010557166124705987
aF0.010970029454184758
aF0.01057248439234513
aF0.010762798344209594
aF0.010925988480933055
aF0.010185987638707926
aF0.008923276646994112
aF0.008867702374837697
aF0.008534985172559914
aF0.00921304050424393
aF0.009240661085356611
aF0.009476718384299218
aF0.010415507051584406
aF0.010856280487146385
aF0.010672191847320057
aF0.011214516972779075
aF0.010969103208663906
aF0.011035584916934151
aF0.010058126735183586
aF0.010303117191474047
aF0.01022455709664999
aF0.010557158988144206
aF0.010849730975562138
aF0.011023189544556236
aF0.010318878647118146
aF0.01015499882019338
aF0.010002102899574093
aF0.010195191696936494
aF0.010894287353724243
aF0.011288883676218563
aF0.011615255214051264
aF0.013292051382182325
aF0.014101982661689919
aF0.02974463832717992
aF0.060176321154492236
aF0.07702911819731992
aF0.05524339400911836
aF0.05747615769990257
aF0.05848018113161991
aF0.060454060688428644
aF0.05990871265474163
aF0.07126970376916955
aF0.07716721025523282
aF0.08594466369040192
aF0.11066557971611513
aF0.12488491072176482
aF0.19291977213742595
aF0.1925713544288354
aF0.2273055057850864
aF0.2534590683091657
aF0.24926066544230555
aF0.2647465107484834
aF0.26450558221874
aF0.2753886576195562
aF0.26667891681069905
aF0.2688430540467455
aF0.25849463686451724
aF0.25982025968597056
aF0.2596386704241408
aF0.26040889885574803
aF0.2609234738127361
aF0.2733216991425698
aF0.2792695607054741
aF0.28701305821414397
aF0.3204188322021453
aF0.33780951170071133
aF0.3699928894148897
aF0.36111319218841204
aF0.370732200402262
aF0.38112223220295677
aF0.378023339212101
aF0.38229698187619077
aF0.3748639003994473
aF0.3742694719689101
aF0.3762228059044766
aF0.37653033679251463
aF0.39486641254473376
aF0.4038651536972599
aF0.4105359789064268
aF0.48274000901393055
aF0.50876065708178
aF0.5323384019440754
aF0.5318146740092684
aF0.536932208978027
aF0.5487632860359115
aF0.5606120349946705
aF0.5425490122356822
aF0.5455567435295666
aF0.5491154968186314
aF0.5493304008246499
aF0.5419988935672025
aF0.5403518369195537
aF0.5650825051647503
aF0.5731310125328934
aF0.6101999751976581
aF0.6542854305470889
aF0.682856021939911
aF0.6944736954633224
aF0.7173757263238284
aF0.7427900166557089
aF0.7664267933724758
aF0.7623484612982453
aF0.763676073834327
aF0.7741269514353118
aF0.7666755649648811
aF0.7607989739557357
aF0.7610290237869334
aF0.7768765746846166
aF0.8072121257305471
aF0.8251510788375362
aF0.8431173530630918
aF0.8621066422132543
aF0.8803490251025057
aF0.9419679797210642
aF0.9575009975249436
aF0.9553841664419815
aF0.9675903100112756
aF0.9610218620975437
aF0.9531727711366379
aF0.9648899805637176
aF0.970242755073246
aF0.9735328505424446
aF0.9905368265418587
aF1.0004444459367463
aF1.0472326453832972
aF1.0708126620308132
aF1.0948294979736988
aF1.118206307878503
aF1.1418138380268497
aF1.1211998584325398
aF1.1302350440136244
aF1.1269731540389065
aF1.1315970535510584
aF1.1362940611947574
aF1.1302724629123913
aF1.1308757518987995
aF1.13244798123431
aF1.133373387564235
aF1.1352302102606775
aF1.13580426928329
aF1.1475153320510896
aF1.1530308405206113
aF1.1904698805751248
aF1.2078156184996873
aF1.2139372582797308
aF1.2586008485888758
aF1.2842495938521339
aF1.2965802391363324
aF1.3060435137573805
aF1.322263844019693
aF1.3114058715209498
aF1.3173365758125961
aF1.3104385387263282
aF1.3119529707755524
aF1.3152075878359637
aF1.3178370054945288
aF1.3201259651778878
aF1.3229840473748278
aF1.325462976380863
aF1.3729409163192474
aF1.4037384028235949
aF1.4252209262774629
aF1.4615392800423408
aF1.4702447156798804
aF1.4884887616064273
aF1.507196170110176
aF1.5229479730004216
aF1.4956783444390414
aF1.4980892293314763
aF1.513001652435679
aF1.5065248242545513
aF1.5076129067007982
aF1.5075856997243056
aF1.508257555327687
aF1.5089504905138338
aF1.509418460746762
aF1.5100233654186965
aF1.509697251765278
aF1.5087123579201833
aF1.508450494302166
aF1.5083668343046248
aF1.508172105149337
aF1.508651626727514
aF1.508688187597983
aF1.5087247540963835
aF1.514377137245065
aF1.5304205469263037
aF1.523093876871292
aF1.5253560869954736
aF1.527094364364611
aF1.5271493346649567
aF1.5283868063786805
aF1.5279904932437918
aF1.527464688922184
aF1.5276273915653018
aF1.5525892338025595
aF1.5624244941760657
aF1.5712365087610656
aF1.5807237166440542
aF1.6252316394921835
aF1.621281497282552
aF1.6323125036413049
aF1.6433432453381025
aF1.628031956605388
aF1.6324337225227
aF1.636666910721441
aF1.6293629122601045
aF1.6321245054067939
aF1.6335292174930258
aF1.6353443079850547
aF1.6358922605769712
aF1.6370117005823102
aF1.6365702260595856
aF1.6362871672771426
aF1.6364167713856328
aF1.6357828219736865
aF1.6356096715955273
aF1.634093408279974
aF1.6341542563620008
aF1.6338382157567428
aF1.6343197015314939
aF1.6343006012764774
aF1.634280982081774
aF1.6357549786162124
aF1.6347880479795065
aF1.634431029713805
aF1.6342495685801735
aF1.6345592630464065
aF1.6345659862002675
aF1.6337366414994374
aF1.6338502620249484
aF1.6337391209033252
aF1.6347207086286533
aF1.6353545565840573
aF1.6357778458389274
aF1.6354724991314937
aF1.6356129658825498
aF1.636056752353467
aF1.6354863011671164
aF1.6354119538869434
aF1.6351627396547024
aF1.6346426920736101
aF1.6343435404598556
aF1.6343385380997217
aF1.6341515763813104
aF1.6351227442873917
aF1.6351566652137253
aF1.6352816183519754
aF1.6356444105670755
aF1.6358621433724008
aF1.6359021611911566
aF1.6355851957229024
aF1.6355538168354884
aF1.6358372604349436
aF1.6359111467833904
aF1.6353090270813249
aF1.6351503629291626
aF1.635050136792596
aF1.635166576782112
aF1.6351247437868273
aF1.6359001034171619
aF1.6358485713123783
aF1.6359536830064767
aF1.6352306993262233
aF1.635028690536755
aF1.6492935969557558
aF1.6743607546042916
aF1.688111567643803
aF1.7011169785915514
aF1.7145670326105389
aF1.7056989627650934
aF1.711816043000619
aF1.717571407835471
aF1.723543911662635
aF1.7134110030000083
aF1.7287998619713023
aF1.7357091945898204
aF1.7585080649815583
aF1.770899540373119
aF1.7719479524785402
aF1.780882570250291
aF1.7886344439412116
aF1.7971376530111234
aF1.788360806428132
aF1.792979234253956
aF1.7961839491738865
aF1.8221625386961309
aF1.8339660510099212
aF1.859040257486492
aF1.8976653016255578
aF1.921726804160703
aF1.9484532827354542
aF1.9743961879193823
aF2.042713638616512
aF2.0377528359359167
aF2.059205752080208
aF2.067695490366172
aF2.0841482415244053
aF2.1006109326690945
aF2.0713082420868187
aF2.0764165625843223
aF2.0743829614053246
aF2.076649058211801
aF2.0809787939573217
aF2.0839417879063737
aF2.1050843602333917
aF2.1526392140347204
aF2.175749538609024
aF2.210059055389736
aF2.236919435877098
aF2.2501488622089916
aF2.2729256460204352
aF2.3500041132855833
aF2.3453879536564437
aF2.3665100864568127
aF2.365233094269771
aF2.3779131867963548
aF2.3905738645652588
aF2.3845209943796717
aF2.3768365490490733
aF2.3799872695619366
aF2.370492599394842
aF2.372279179740082
aF2.3726417656611574
aF2.373457047466669
aF2.3844147607120747
aF2.389369198797413
aF2.4092869169009763
aF2.420003163666514
aF2.448701070051717
aF2.509950840912724
aF2.5463696068472377
aF2.558375632980501
aF2.5857471978552615
aF2.6012805776304324
aF2.6145399297916323
aF2.6334630501830922
aF2.6311057163755978
aF2.641565437423484
aF2.629547383055828
aF2.6316349955189438
aF2.647959456292646
aF2.6547740032584928
aF2.692317528141387
aF2.708351649462644
aF2.7393459712807164
aF2.7630182863076445
aF2.781964967435866
aF2.8022747479868184
aF2.7945696671775173
aF2.8044226927333034
aF2.7986993553574973
aF2.7937663132824713
aF2.795118841730705
aF2.797069892759283
aF2.8112241394429804
aF2.818061037861039
aF2.8248909203408847
aF2.8732314436958024
aF2.897343208380643
aF2.9323807112966795
aF2.960967887436968
aF2.990760663853431
aF3.0515828990142477
aF3.0952366546023327
aF3.0836647036490836
aF3.106039022329115
aF3.1263218780269777
aF3.1244458803606534
aF3.1362973044194855
aF3.132117160548853
aF3.1383959844938367
aF-3.1385025951274255
aF3.1319602782914204
aF-3.1208077943358417
aF-3.083783198324807
aF-3.061445726512514
aF-3.039218571466345
aF-2.9837853367640212
aF-2.9592881000726146
aF-2.9292673574125967
aF-2.9317962885246778
aF-2.912651026117873
aF-2.807253458998598
aF-2.8291740038869775
aF-2.811027445036043
aF-2.7917178382614094
aF-2.8191034505282735
aF-2.8165759108584174
aF-2.8116048823893336
aF-2.808238831707741
aF-2.8072017442216683
aF-2.807831986157712
aF-2.808187679789544
aF-2.8077024775308974
aF-2.8096459935574476
aF-2.79968426826883
aF-2.795788607573494
aF-2.804040542428244
aF-2.800747592138075
aF-2.7988182891654603
aF-2.797220729048285
aF-2.7970800595164564
aF-2.7966898608421196
aF-2.795906965629019
aF-2.797522626146182
aF-2.797528786160787
aF-2.779963508235741
aF-2.751154303112359
aF-2.73691703102191
aF-2.711496087492107
aF-2.6934906701021437
aF-2.649745647181241
aF-2.6232116850859355
aF-2.6274382148796342
aF-2.6269043050627245
aF-2.629742801278146
aF-2.624509593019667
aF-2.6297174841904165
aF-2.6278403631626963
aF-2.6267499882832275
aF-2.625257788628405
aF-2.656730000163564
aF-2.6524979918907774
aF-2.657907127045899
aF-2.6626100080780755
aF-2.6637853014807717
aF-2.6672702719186847
aF-2.6575365441839183
aF-2.6589061587519995
aF-2.6591228216749503
aF-2.6612199961711007
aF-2.6623137244479413
aF-2.6632664480524273
aF-2.6623807261595704
aF-2.661934363481851
aF-2.6619845370757114
aF-2.673193352980727
aF-2.676867133070459
aF-2.7337807195621964
aF-2.7579106864881697
aF-2.7635089054117428
aF-2.7657648466919245
aF-2.7746115792427872
aF-2.772152083666054
aF-2.7740875331836543
aF-2.7775615263080073
aF-2.7810367292433527
aF-2.78122005391145
aF-2.779970867442998
aF-2.777650341756199
aF-2.7778716665863796
aF-2.7762821274617515
aF-2.776434581272131
aF-2.77629673980718
aF-2.790586034184138
aF-2.795353611646847
aF-2.8199102197107626
aF-2.843060179793158
aF-2.8582253368638795
aF-2.856034365247318
aF-2.8510910218979997
aF-2.8529734014135233
aF-2.8569977650763057
aF-2.8478213665113277
aF-2.8569647886103184
aF-2.8501620758482864
aF-2.848544393256164
aF-2.8644503853023826
aF-2.8806503522270552
aF-2.8992729644327953
aF-2.9130028626601994
aF-2.9458150308176756
aF-2.9510990951544516
aF-2.9655193184451014
aF-2.9538249666315375
aF-2.9598454850389277
aF-2.9662431308197155
aF-2.9612020915693127
aF-2.962735090414325
aF-2.9652046213317758
aF-2.9651399414116844
aF-2.9642579935215134
aF-2.9645597148186638
aF-2.964326423332723
aF-2.967751254444633
aF-2.985362467521708
aF-3.0050102057735577
aF-3.018634649002631
aF-3.0126750302650738
aF-3.015521372858229
aF-3.0204788351325558
aF-3.011992372229349
aF-3.013295048991948
aF-3.0148793589706533
aF-3.0160621608718854
aF-3.029903121546812
aF-3.0387114035551392
aF-3.045820205467411
aF-3.052934399248409
aF-3.0577269886226968
aF-3.0643559283735766
aF-3.0709265432494854
aF-3.0644611187745068
aF-3.066522727300359
aF-3.0685467429390183
aF-3.0745603170013376
aF-3.0977916297127464
aF-3.109277115540649
aF3.1288617037834374
aF3.1196689001738784
aF3.1017848164484603
aF3.082294441728203
aF3.076583568183262
aF3.063528510057506
aF3.066037597754749
aF3.072129864666998
aF3.070056395759788
aF3.068038187343558
aF3.069019217232102
aF3.0688437222950604
aF3.068858631159931
aF3.0685479858611995
aF3.0645217097759723
aF3.039934556836258
aF3.0282335783175975
aF3.0169379259033366
aF3.0085855268463972
aF3.01298998834856
aF3.0097024521410893
aF3.0099619607072774
aF3.0095398458945595
aF3.00816716028381
aF3.0091631023923573
aF2.9953113061575367
aF2.980274700182432
aF2.970640122510736
aF2.959911857461953
aF2.9502437329712294
aF2.9403745433348227
aF2.950722758655717
aF2.9469624856089793
aF2.9504728133106988
aF2.948650103018366
aF2.946826095119803
aF2.931044186210719
aF2.889577100439178
aF2.882766479119752
aF2.8439591867731235
aF2.8189514667942634
aF2.8086952458726184
aF2.7890173154294096
aF2.8040340516491202
aF2.806820420051176
aF2.80213444833617
aF2.799539478096386
aF2.803441110550101
aF2.802936171162231
aF2.8024310297715376
aF2.799842017265885
aF2.7995590029058874
aF2.7987311815196736
aF2.7858496854902746
aF2.779722213081801
aF2.774528716672453
aF2.778572866360749
aF2.7768731881282243
aF2.77449173965809
aF2.773760684316989
aF2.7723431242420014
aF2.773957510092535
aF2.7735274261650895
aF2.774768288053021
aF2.77521816946174
aF2.7754273059374794
aF2.761966566134136
aF2.757251558506768
aF2.7527626859509438
aF2.7521994261422957
aF2.752752873274171
aF2.751295478783377
aF2.7531301956847765
aF2.75292648185254
aF2.7534979901697167
aF2.753845384104538
aF2.7429599024614806
aF2.7363348537106864
aF2.730885150498975
aF2.7126470928446085
aF2.7048007845049353
aF2.7092500059303
aF2.706575504028392
aF2.705375685254717
aF2.704757533376493
aF2.703348846214371
aF2.7050711340796023
aF2.704806166568553
aF2.705580198120738
aF2.704988926263499
aF2.7050769540305835
aF2.705599334345768
aF2.7057798394893227
aF2.7050934497660775
aF2.705559193057118
aF2.7056853349456937
aF2.7059344481939007
aF2.7061067335577667
aF2.704694931518393
aF2.7043317059709535
aF2.7048419827146293
aF2.7050049301966514
aF2.704998253740119
aF2.7052138651558577
aF2.7054423603050175
aF2.7055788997585717
aF2.705715534498369
aF2.7047275440098333
aF2.704555873739516
aF2.703783560093706
aF2.7048768159174768
aF2.7053685406502477
aF2.70571453097702
aF2.7200619415923475
aF2.7266189906254987
aF2.732512419543933
aF2.7570606127313844
aF2.7982154594847204
aF2.8214646432030146
aF2.848418388402023
aF2.8743123961269834
aF2.8846006038536167
aF2.9017195116725287
aF2.90120061804078
aF2.8895162099989724
aF2.891086052558888
aF2.89620638165779
aF2.898325584014718
aF2.8986768995285686
aF2.9001173218351357
aF2.9033070091850304
aF2.919988459976544
aF2.9560530500484576
aF2.9774040844980934
aF2.999587937644763
aF3.034150928915943
aF3.0635520530504468
aF3.0915905336084832
aF3.086532861744352
aF3.1027750974873953
aF3.101477996409222
aF3.108536658581916
aF3.1182735937311143
aF3.095857836478649
aF3.099188819395684
aF3.1011107781222598
aF3.1209552799570273
aF-3.1395291225791273
aF-3.101257501907581
aF-3.0784924291094904
aF-3.05765991807509
aF-3.006144983871316
aF-2.972155091288405
aF-2.9246845850753185
aF-2.882919818401397
aF-2.843050246549289
aF-2.805385455533965
aF-2.7753724932143125
aF-2.7390538650932292
aF-2.7330041044245164
aF-2.7076266255967356
aF-2.712812426213277
aF-2.7131185530876047
aF-2.7037779990410153
aF-2.7084581920137474
aF-2.703697921737262
aF-2.677910573831915
aF-2.667003488613515
aF-2.6259129484599133
aF-2.6441746277032077
aF-2.6383086718651225
aF-2.6324475464252277
aF-2.641351077277639
aF-2.6391153840542
aF-2.632516598850728
aF-2.62868754676876
aF-2.598795646309049
aF-2.586374994675489
aF-2.55322377784681
aF-2.534582656804488
aF-2.456604643349616
aF-2.4275872233136715
aF-2.3931128776467476
aF-2.3586249522381317
aF-2.2681940629916095
aF-2.2376787393754025
aF-2.257063219206336
aF-2.2388594582264805
aF-2.2068213335734845
aF-2.182637071951619
aF-2.184151233156127
aF-2.169780411373387
aF-2.1850227035015752
aF-2.183697950010489
aF-2.1805391339137574
aF-2.1898685159842914
aF-2.1868661305223234
aF-2.1864689897713454
aF-2.1846473928062267
aF-2.1795536987525823
aF-2.17718280113946
aF-2.1575187086618657
aF-2.123042906383756
aF-2.096197410540491
aF-2.074164856924083
aF-2.0685052305936527
aF-2.0525474538022666
aF-2.056306378606587
aF-2.0657940362349887
aF-2.0652950022651835
aF-2.0634653869004613
aF-2.063116594660716
aF-2.0632432670210705
aF-2.062570170099539
aF-2.061896533316486
aF-2.0552097085878764
aF-2.052922390155053
aF-2.0298440805088105
aF-2.0164496036761146
aF-2.0050273332678366
aF-1.9430193592852474
aF-1.913129970339737
aF-1.926204981615007
aF-1.8537413934902451
aF-1.838885601830674
aF-1.8114313610822634
aF-1.8176729170280945
aF-1.8137164627188254
aF-1.8030821216373025
aF-1.8053710303823003
aF-1.8108208224368638
aF-1.8088280700274182
aF-1.807032307546031
aF-1.7963021963997798
aF-1.7911252841226586
aF-1.7745259036789907
aF-1.764846441338036
aF-1.7300733551285603
aF-1.6914618322404928
aF-1.6646589494245845
aF-1.6283598339522902
aF-1.5980454827513582
aF-1.5696554736012147
aF-1.5399715995511598
aF-1.5085514490071266
aF-1.5073412575900014
aF-1.5129644768638457
aF-1.5040894157624447
aF-1.495215100215383
aF-1.5019030357232903
aF-1.5075829494510002
aF-1.5063533127986544
aF-1.5056893970143228
aF-1.5054712488889106
aF-1.5047158735979993
aF-1.4934076028827776
aF-1.4877563327230021
aF-1.4804552042813441
aF-1.4458979508165877
aF-1.425277260848896
aF-1.4062090270922356
aF-1.3871496019258607
aF-1.3727781773104375
aF-1.3123531480100126
aF-1.2959177451594308
aF-1.2941146245131268
aF-1.279993707525029
aF-1.2690523197796426
aF-1.2560951635036839
aF-1.2803673392542727
aF-1.275570004016391
aF-1.275551866857762
aF-1.2739263132606262
aF-1.2741137228375596
aF-1.2731335653378102
aF-1.256732723690462
aF-1.2499053820359203
aF-1.205808455137469
aF-1.1859947169838239
aF-1.1531637925501543
aF-1.1296039919375058
aF-1.1100661166813348
aF-1.0879282172802807
aF-1.054032946662948
aF-1.0280100614379222
aF-0.9861210600081989
aF-0.9543216552886572
aF-0.9644982394762251
aF-0.9847753719168465
aF-0.9804187837737778
aF-0.978691641842184
aF-0.9753735422503467
aF-0.983208308202105
aF-0.9835179882726411
aF-0.9812602502191851
aF-0.9807961302884293
aF-0.9796327925180921
aF-0.978956307717677
aF-0.96380752790478
aF-0.9445426025812748
aF-0.9347962259980702
aF-0.8682015412055105
aF-0.8391908362934526
aF-0.8223115208946264
aF-0.7723392585099145
aF-0.7374821908570244
aF-0.6675546642142729
aF-0.6208484479491314
aF-0.6367895902869208
aF-0.5692234896532329
aF-0.5264949200804167
aF-0.5283889824976522
aF-0.5107083080677555
aF-0.48683647698168464
aF-0.5104083524666613
aF-0.5023928916984592
aF-0.4791503129649091
aF-0.4664216190841152
aF-0.45349463831148745
aF-0.46105624555023117
aF-0.46887953491495415
aF-0.4689593913124031
aF-0.4677344446993138
aF-0.4648261928658467
aF-0.46391673409535755
aF-0.46278461697900697
aF-0.45137080159306064
aF-0.4464784116397754
aF-0.41002960021054075
aF-0.39487102731306845
aF-0.378062953309281
aF-0.2902989268459043
aF-0.24840591214631516
aF-0.20389384389948031
aF-0.1964790920793639
aF-0.19040780550213282
aF-0.17004973409675023
aF-0.1604793911431664
aF-0.14395422552536538
aF-0.14049773436342147
aF-0.12842057765181847
aF-0.14052108181754702
aF-0.14919636431666097
aF-0.1452465844211421
aF-0.14349638195010003
aF-0.14171243206716175
aF-0.14344295803061718
aF-0.1429190536116112
aF-0.118089654298459
aF-0.1104168288585778
aF-0.10273526419265475
aF-0.07826901705889329
aF-0.01732111219073616
aF0.02292170367065076
aF0.06986972978451576
aF0.10926121859711976
aF0.127765372121501
aF0.15954793210694926
aF0.1423048626136239
aF0.192583502126734
aF0.1652356054962294
aF0.17161385795256892
aF0.1753106461712785
aF0.17051660544843653
aF0.17288808001906994
aF0.17469912625041265
aF0.17390710404990795
aF0.17373334326370155
aF0.17417341527354635
aF0.1746172117819353
aF0.1750266526387927
aF0.1752490744075935
aF0.1755711797771555
aF0.1773750598289257
aF0.17825469760709775
aF0.17913342100454074
aF0.1800133964002127
aF0.18089228157270784
aF0.18177114740253364
aF0.18264978639560187
aF0.18352941010637802
aF0.18440822845874294
aF0.18528840959007903
aF0.1861672437682642
aF0.1870463170921787
aF0.1879262098419002
aF0.1888047697058667
aF0.18968400656325757
aF0.19056329089810947
aF0.1914423483962034
aF0.1923214709560032
aF0.19320057417313372
aF0.19408052143401408
aF0.19495925889885302
aF0.1958386346717778
aF0.19671734048497602
aF0.19759673208372097
aF0.19847555219451035
aF0.19935496137750025
aF0.20023425274604995
aF0.17900565424988582
aF0.1786998476108297
aF0.17860649273454587
aF0.17731528092370985
aF0.1762653316846704
aF0.4155424893845562
aF0.41520332125677684
aF0.42038953756091524
aF0.4175482103716247
aF0.41454621499120126
aF0.41308900612883015
aF0.41398860733349535
aF0.413373135377765
aF0.4142321044704033
aF0.4143595041145441
aF0.4140149779519005
aF0.41383986732212424
aF0.4161047769124935
aF0.41680801108881055
aF0.4172054790006948
aF0.41770965088217604
aF0.4167465434754327
aF0.40925783921600883
aF0.40567146940933085
aF0.4248058176562583
aF0.42925775312712233
aF0.4522202410971678
aF0.4620033948973758
aF0.45773865404527053
aF-0.06533644640067425
aF-0.28494512022114576
aF0.06542681175075522
aF0.051672308969155666
aF0.072173295147189
aF0.04138216595085517
aF0.02848761597437314
aF0.07495107495501502
aF0.08300953556339677
aF0.0018561996952470652
aF-0.13438492757954876
aF-0.20300313618085095
aF-0.4947527641651308
aF-0.6481981700509475
aF-1.2794475298241692
aF-1.5934562974767015
aF-1.9071305318338283
aF-1.8265973838192606
aF-2.3308330491270843
aF-2.636001718745697
aF-2.940956665288684
aF3.0372396200518432
aF2.731978093220205
aF2.427003620953355
aF2.144615906094568
aF1.8506728044647744
aF2.1869131424711186
aF2.2895659252483678
aF2.436120480574507
aF2.5027625133742313
aF2.2504001007166665
aF2.1973083617616402
aF2.3058116329830427
aF2.4579687779301307
aF2.3876022154230854
aF2.2489225141034366
aF2.185293173457518
aF2.2986382639261063
aF2.298189084640185
aF2.2979257207302797
aF2.3785063570822382
aF2.3354714530062837
aF2.2454376963257445
aF2.2095141741147257
aF2.2871220960043273
aF2.3794917907329483
aF2.415059285138314
aF2.3439279944834266
aF2.3440723901856235
aF2.344397648504011
aF2.3434610122613844
aF2.343471129602432
aF2.3443305388497033
aF2.3447202227722723
aF2.344498798077135
aF2.3437214117071594
aF2.343560707315035
aF2.3433683961831124
aF2.3445783102479054
aF2.344889015849883
aF2.343702310995538
aF2.3428401978525932
aF2.3425191896230295
aF2.3421676703538097
aF2.342270851194959
aF2.3420851988437468
aF2.3423448712314445
aF2.342334341063151
aF2.3423103658308424
aF2.3433045885035892
aF2.3436727563705935
aF2.3434998982031394
aF2.343773093791515
aF2.34397940686121
aF2.3439300987809255
aF2.3440487632869393
aF2.3435649005877583
aF2.34312383765604
aF2.342890115023481
aF2.342919089564254
aF2.3431076903522374
aF2.343225234985711
aF2.343277536784975
aF2.3430468964689974
aF2.3429565228424183
aF2.3429892002759156
aF2.34297106764251
aF2.3432070864573125
aF2.3432499117051324
aF2.3434832305688733
aF2.3436264361482717
aF2.3427065006999896
aF2.3428184194432
aF2.342722713576225
aF2.3413651745054644
aF2.3412927010030957
aF2.34096915284401
aF2.3415948834538503
aF2.342013009843425
aF2.3421910950802327
aF2.341980947092755
aF2.341796268159909
aF2.3419088973922406
aF2.3415930807682965
aF2.341459442614995
aF2.3413838770205917
aF2.341248514454593
aF2.341860510206222
aF2.3420792833567776
aF2.3418940444803407
aF2.3415491602691745
aF2.341453551081675
aF2.3412751340056097
aF2.34115220349741
aF2.341051368467394
aF2.3414527887455003
aF2.3415702541446426
aF2.3420598524569245
aF2.3423218676458983
aF2.3416743065379917
aF2.341656384325797
aF2.3416241254315895
aF2.3418267193982425
aF2.341634212175272
aF2.3415735213047815
aF2.3417943114802418
aF2.341730218289719
aF2.341728888229449
aF2.3417158758278607
aF2.3417167060082646
aF2.341691925971564
aF2.3416785036744465
aF2.3416650847854896
aF2.3417386763200585
aF2.3417030341115286
aF2.341697872348863
aF2.341702073968534
aF2.341700276867155
aF2.3416984802868464
aF2.341680708723121
aF2.3416710511607124
aF2.3406860586603013
aF2.3406119917255084
aF2.340372436510215
aF2.3406801249367963
aF2.3408799346641813
aF2.3409174852135477
aF2.3407260156295506
aF2.3409124578001967
aF2.3409622833987633
aF2.340715859020527
aF2.340667358792103
aF2.340874003951371
aF2.3407074295740986
aF2.3408057743822317
aF2.340822964993741
aF2.3406438931521794
aF2.3408290123802677
aF2.3407147346901627
aF2.340690974685866
aF2.3406668033657407
aF2.340793108875642
aF2.340685418136208
aF2.3406608141836376
aF2.3407882526549995
aF2.340815078212438
aF2.340651098919923
aF2.340302815498914
aF2.340156910605426
aF2.340818086136992
aF2.340601242898492
aF2.340505425449823
aF2.340453178919635
aF2.3408632552746105
aF2.340556183417595
aF2.3405048055115554
aF2.340450918008285
aF2.3408566645355617
aF2.340565234957276
aF2.34051209788454
aF2.3404305241000682
aF2.3408058568796153
aF2.3405145084412067
aF2.340453198894861
aF2.3403919564997646
aF2.340715514283292
aF2.340790789268398
aF2.3404769258673546
aF2.340765343348615
aF2.3405270748506855
aF2.3407180117845785
aF2.3407796407403363
aF2.33973861952538
aF2.3398195350842204
aF2.3402872686859704
aF2.340430584397474
aF2.340206791557982
aF2.3400918495548932
aF2.34004022327139
aF2.3401437679465524
aF2.3400903319155355
aF2.340256114855296
aF2.340319589692259
aF2.3400184085833855
aF2.340243985244564
aF2.3401061098914675
aF2.3400684387577764
aF2.3400307354591385
aF2.339993120896641
aF2.3402895978128293
aF2.3401288616065923
aF2.3401060839465297
aF2.340091272951782
aF2.340070628507189
aF2.340270265140586
aF2.340322288192902
aF2.3396482977230084
aF2.339702482544539
aF2.3396204966850704
aF2.3397607339072928
aF2.3397567504913623
aF2.3395166604991133
aF2.3394369956304795
aF2.3395894046938888
aF2.3396819425962656
aF2.3397022050805054
aF2.3396824463977213
aF2.339687059973927
aF2.3396858910940037
aF2.339689134242512
aF2.339662859602922
aF2.3396553556007724
aF2.3396560025699302
aF2.339660474794165
aF2.3396594510282607
aF2.33965842634455
aF2.3396632228905925
aF2.339668605741007
aF2.3396714083907835
aF2.3396227851247104
aF2.339497915858052
aF2.339417787731475
aF2.339347574236702
aF2.339322950190788
aF2.339347539324135
aF2.3393797293529817
aF2.3393837810950773
aF2.3393973595500404
aF2.3393852578875034
aF2.3393660543975625
aF2.3393569187003695
aF2.3394089688691326
aF2.33937294184691
aF2.339366086629184
aF2.339396088104858
aF2.339398168295154
aF2.339395879887606
aF2.33939722535796
aF2.339371778762942
aF2.339374446397804
aF2.3393380528725993
aF2.3392790946743918
aF2.33924134049152
aF2.3392419101490165
aF2.3393140062798707
aF2.3393290532959607
aF2.339157132317108
aF2.339112534839367
aF2.339194101838504
aF2.339200994977854
aF2.3391842048731912
aF2.3391917273620217
aF2.339193961165975
aF2.33916611044919
aF2.3391581450730645
aF2.339198318891359
aF2.3392045926462277
aF2.339203415023829
aF2.3391951213210813
aF2.339195230269719
aF2.3391873791854754
aF2.3391851135117063
aF2.339182845606212
aF2.3391805817358935
aF2.3388956753924437
aF2.33897097476847
aF2.3389446478742584
aF2.3390258689591064
aF2.3389219591561883
aF2.3388840522146954
aF2.3389070788297195
aF2.338891711270046
aF2.3389260540219365
aF2.3389272345671173
aF2.338897674626584
aF2.3388843124374277
aF2.3389095628860375
aF2.3389100692138483
aF2.338871782999645
aF2.3388615979963925
aF2.3388200653051405
aF2.3389895076951337
aF2.3390481497936904
aF2.339106946599315
aF2.3388582335620893
aF2.338807029247351
aF2.338826942162283
aF2.3388681091495234
aF2.3388394610280727
aF2.338773139817465
aF2.338732766215275
aF2.3387555331032233
aF2.3388009084934738
aF2.3387375026271977
aF2.3387122741979955
aF2.33868704334691
aF2.338741679747212
aF2.338719647453452
aF2.3387133393715387
aF2.338734045929348
aF2.338737506686295
aF2.3387306464863573
aF2.3387293379915337
aF2.3387280269994575
aF2.338726719363228
aF2.3387254114050258
aF2.338724101876224
aF2.3387227939520523
aF2.338721485640465
aF2.3386884637611054
aF2.3387089513732273
aF2.3387110035498506
aF2.33871306537496
aF2.3387083953353422
aF2.3387085540118173
aF2.3386048957199392
aF2.338535878161067
aF2.3385579766889264
aF2.3385419224729715
aF2.338706751488422
aF2.338687941825416
aF2.338647299947129
aF2.338642892110799
aF2.3386384506736224
aF2.338626665961119
aF2.338639774754187
aF2.3386409208102106
aF2.338642068953743
aF2.3386432155236143
aF2.3386140456269615
aF2.3386022246016216
aF2.3386368727954356
aF2.3386472219487415
aF2.3386131669878614
aF2.338601170355923
aF2.338648887479784
aF2.3386571142774013
aF2.3386660294099775
aF2.33850208918918
aF2.3384402767948376
aF2.338462244467095
aF2.3384433895856716
aF2.3385964572614073
aF2.338582216455156
aF2.338601057121723
aF2.338580791536666
aF2.338593347187325
aF2.3386021267704047
aF2.3386109043517274
aF2.3385910469578017
aF2.3385945132558756
aF2.3385907244560116
aF2.338589250801252
aF2.3385994707007915
aF2.338602445929091
aF2.3386054243535153
aF2.338608399266368
aF2.338588814701054
aF2.338584024520078
aF2.338579236302295
aF2.3385744462553903
aF2.3382836841684562
aF2.3382645124719215
aF2.338326557063903
aF2.338315685956876
aF2.3383628702710024
aF2.3383736050633095
aF2.3383843681454604
aF2.338392877658711
aF2.338401813407203
aF2.338374246206239
aF2.338369954513855
aF2.3383656595576316
aF2.338361365383012
aF2.338357075064878
aF2.338402540582873
aF2.338416801632151
aF2.3383868007139093
aF2.338386311221886
aF2.338386385805023
aF2.338385571626527
aF2.338384979196895
aF2.3383659914599404
aF2.338357847546586
aF2.3383586728901764
aF2.3382705754265998
aF2.3382922315948105
aF2.338329866228215
aF2.338340715676862
aF2.3384650892695515
aF2.338425655987174
aF2.3384404185169303
aF2.338379309242786
aF2.338369850376301
aF2.3383884111000786
aF2.33839039368805
aF2.3383923720245083
aF2.338394054040349
aF2.3383974630802244
aF2.3383992636969984
aF2.338401427428481
aF2.338397737473199
aF2.338390605453443
aF2.3384169053517976
aF2.338427625849141
aF2.3384067366058354
aF2.3383909583623543
aF2.3383841042451223
aF2.338397412889129
aF2.3382528767766173
aF2.338278134847082
aF2.3382405228518848
aF2.338211629378847
aF2.3381894575928848
aF2.3383125697619103
aF2.3383575140600703
aF2.33833794448123
aF2.3383598925007503
aF2.3383030880203948
aF2.3382950027884557
aF2.3382894504450826
aF2.3383005474420755
aF2.3383010396259096
aF2.338301532673807
aF2.3383096330288313
aF2.3383132455728304
aF2.33831685937411
aF2.3383013945918334
aF2.3382971500754164
aF2.338287250703725
aF2.3382775159946347
aF2.338306418529085
aF2.3383159834102574
aF2.3383255440255613
aF2.338235539989933
aF2.338188326041813
aF2.338150141135163
aF0.20973550363980548
aF0.20982149274563633
aF0.20983681482034222
aF0.20985817846548047
aF0.20977962320163224
aF0.20980943468905355
aF0.20981293765892678
aF0.20981644461021298
aF0.20981994961985997
aF0.2098234534448967
aF0.20978776518215742
aF0.2097726813013056
aF0.2098585321851355
aF0.20981742157855382
aF0.2098109721819574
aF0.20980452782567507
aF0.20981096306044456
aF0.20981021311304
aF0.2098063466747683
aF0.20970084427633362
aF0.20979699473976451
aF0.2098189111088926
aF0.208624684359753
aF0.20892813113991462
aF0.20920558022318253
aF0.2092770977761098
aF0.20902636999838892
aF0.20881001970921598
aF0.20869051743595238
aF0.20856555492000323
aF0.20844420732827473
aF0.20933236954765533
aF0.20954432534017917
aF0.20943011108501178
aF0.2086891068774857
aF0.20847588385773383
aF0.20887799935865858
aF0.2097918418940778
aF0.2101648898598809
aF0.21200948582603366
aF0.21216343943733212
aF0.2127320226894597
aF0.2100718879718498
aF0.20985805167159496
aF0.20941092254008822
aF0.20900216430873522
aF0.20989079307517888
aF0.20958648047559253
aF0.20948708334524976
aF0.20961924035517648
aF0.20996209934999854
aF0.20949055634774663
aF0.20933459099282706
aF0.20868400416290972
aF0.20947961610819935
aF0.2101392948822026
aF0.21052527165678617
aF0.211095645364582
aF0.2113034084851867
aF0.20989777960807388
aF0.20942174680987036
aF0.2091576398178977
aF0.20880670057735445
aF0.208426723208671
aF0.20929988944424605
aF0.209060181519851
aF0.20895835909150318
aF0.209962281011353
aF0.2108978330781894
aF0.21114518706990948
aF0.21156018006348024
aF0.21073888978853553
aF0.21070350912036825
aF0.21215121848558788
aF0.2125863432875996
aF0.2110407633138252
aF0.21090601438538395
aF0.21154685702525158
aF0.21030236458807883
aF0.2098940525556752
aF0.20863085641930512
aF0.2096948749952503
aF0.20999071321183976
aF0.21014003335531772
aF0.210923575050101
aF0.2108516491226108
aF0.21104807914018234
aF0.21053381617669714
aF0.21081494369784495
aF0.21091155481043197
aF0.21065984097617613
aF0.21064083401908343
aF0.2105174075914748
aF0.210467295945318
aF0.2104497399259005
aF0.21041102138599804
aF0.21038818723171393
aF0.21072036468907024
aF0.2095869422840889
aF0.20909200116791485
aF0.20965522631974456
aF0.21049689706011293
aF0.21033754558763385
aF0.21041091403267415
aF0.21046237135382087
aF0.21116790629761237
aF0.21105902375469301
aF0.21117985902444358
aF0.21020274718061197
aF0.20977619411454304
aF0.20975997713356526
aF0.2095886617624449
aF0.21087037318765994
aF0.21124078277306216
aF0.21075212241812707
aF0.21059869949338164
aF0.2110755957301335
aF0.21129283274184638
aF0.21204122876509204
aF0.21246202121152938
aF0.19236307839668915
aF0.19615520982925147
aF0.19123048869201775
aF0.1874869566988729
aF0.18702061449733692
aF0.18448325332031515
aF0.1859206933762115
aF0.18784102151896806
aF0.1879140835307919
aF0.1731473519993425
aF0.14494662175699363
aF0.12868905657545604
aF0.12643590141416516
aF0.11530735720327114
aF0.10416843145128733
aF0.09804371036806159
aF0.10444965134623611
aF0.10288382257537462
aF0.10973435696721243
aF0.11084840679741713
aF0.09608562717129795
aF0.09149308493329542
aF0.052598143714660886
aF0.035839273929176796
aF0.019827468309320945
aF-0.008475418733895578
aF-0.06387588883026608
aF-0.09862538638099844
aF-0.0852000715350845
aF-0.1029315814399796
aF-0.10730927110117679
aF-0.1198239892451258
aF-0.13279612365084056
aF-0.15019272966998573
aF-0.16624221927532884
aF-0.18124303617382698
aF-0.2250370337362178
aF-0.273016523392193
aF-0.30748798041679254
aF-0.3132494063696669
aF-0.3371222821725983
aF-0.34457269092324727
aF-0.3339734954316333
aF-0.3414845658578098
aF-0.3504092572833855
aF-0.3573095416693901
aF-0.364841647848746
aF-0.35563046807678955
aF-0.3672940857730962
aF-0.3733159920246391
aF-0.3933601103771853
aF-0.40449839870318405
aF-0.4278706066794724
aF-0.44237184103401656
aF-0.429890398873071
aF-0.43939309811413646
aF-0.44726187380557725
aF-0.47388347208140963
aF-0.49134925377686106
aF-0.4938844651867004
aF-0.5032634363108075
aF-0.5000679148494852
aF-0.5082861653038057
aF-0.5145991044507837
aF-0.5350697575981115
aF-0.5464046276995975
aF-0.5559185211275819
aF-0.6005158455025971
aF-0.6241807904164972
aF-0.7187387114058321
aF-0.7248436312358664
aF-0.7568536639147492
aF-0.7913002856745732
aF-0.8232390407649862
aF-0.8557283932503852
aF-0.8586780233038498
aF-0.882649834880145
aF-0.9320025193843511
aF-0.9041943087978084
aF-0.9033430673720226
aF-0.8994272580285247
aF-0.902434112285922
aF-0.903178994232375
aF-0.9029377087176929
aF-0.9040926167655257
aF-0.9028950918601558
aF-0.9041172219425938
aF-0.9209725223606113
aF-0.9290479113077966
aF-0.9548718876096397
aF-0.9692417801054014
aF-1.0220761232995283
aF-1.0475144850613125
aF-1.0854580821418165
aF-1.0760231048103994
aF-1.090028742613009
aF-1.0923511793957286
aF-1.0905961409292835
aF-1.0957233705951113
aF-1.111508403034701
aF-1.1205747451280088
aF-1.142516239526756
aF-1.170572850131915
aF-1.1882192192352279
aF-1.2187413965204321
aF-1.2420150896957087
aF-1.2489086666959692
aF-1.254366468007399
aF-1.266378306148965
aF-1.2528274731657636
aF-1.2572155119196227
aF-1.2607438954929722
aF-1.2629217742384526
aF-1.2789721396521738
aF-1.2870186917863604
aF-1.3272716670771436
aF-1.3361593934775802
aF-1.350994573495038
aF-1.418219006435464
aF-1.477794606944152
aF-1.5236234640782238
aF-1.5645081534969676
aF-1.5605202930034656
aF-1.584459721808346
aF-1.6001592701509801
aF-1.6211202396301707
aF-1.6212710900007583
aF-1.6171315386568919
aF-1.6382293078293368
aF-1.6515597257107515
aF-1.6686071526272976
aF-1.6987471558099538
aF-1.744811332473928
aF-1.7776434667265468
aF-1.795657624612463
aF-1.8225412777497956
aF-1.8515581646441261
aF-1.8796353303265045
aF-1.873785228822595
aF-1.8736471555936718
aF-1.8832350843900643
aF-1.8777255321569706
aF-1.8823552554569336
aF-1.8834700249188054
aF-1.8716464165539446
aF-1.8911584346191859
aF-1.900094502159858
aF-1.9074221977329717
aF-1.9305201314652307
aF-1.9915107688196585
aF-2.024840357019404
aF-2.0465677356014167
aF-2.075631193832591
aF-2.105036199669913
aF-2.089733568261199
aF-2.1016995606977846
aF-2.1136545004920997
aF-2.1264046145777695
aF-2.119562326361534
aF-2.126311868555771
aF-2.15566875231052
aF-2.1728054981046387
aF-2.187276950471797
aF-2.2166759877524878
aF-2.2629786401097713
aF-2.2964817721133066
aF-2.289596897309349
aF-2.321406568733468
aF-2.3451354444463193
aF-2.3366811827531886
aF-2.3342814564104413
aF-2.340757557700494
aF-2.333710992957246
aF-2.350948518161449
aF-2.371923146561638
aF-2.386151043008048
aF-2.4024147191084717
aF-2.417352774293994
aF-2.4327295609058335
aF-2.447744363522437
aF-2.46279416033327
aF-2.461152365722849
aF-2.45598397028378
aF-2.4593970104552976
aF-2.4657484277556176
aF-2.48386705653252
aF-2.5206938236571723
aF-2.541497319633901
aF-2.54940298912606
aF-2.599609773675154
aF-2.6302655602865936
aF-2.709637796665763
aF-2.7581381286661313
aF-2.7189588973919068
aF-2.755165760535548
aF-2.782725396288413
aF-2.7616632772911145
aF-2.774951990206223
aF-2.788088306172493
aF-2.816645220995736
aF-2.834995188811176
aF-2.870902246035765
aF-2.948993159647277
aF-2.9939502451313027
aF-2.965597663605971
aF-2.986438408097908
aF-3.085506038167077
aF-3.059846203018956
aF-3.077120022585132
aF-3.095233333364737
aF-3.0803084003405052
aF-3.0826978831523486
aF-3.0851757406543205
aF-3.0886862893405724
aF-3.079305952901353
aF-3.0877018796340767
aF-3.090998677864973
aF-3.079388582083293
aF-3.0811297410224268
aF-3.0805313622339936
aF-3.083981723880402
aF-3.0867284435980427
aF-3.0860819376642756
aF-3.086670714585805
aF-3.0853746922318424
aF-3.085139115793624
aF-3.0850270995101776
aF-3.085387704808924
aF-3.0858715014956033
aF-3.085281911936942
aF-3.08468848784358
aF-3.0843404895694566
aF-3.0839911033722482
aF-3.083642628126142
aF-3.0843862018074097
aF-3.084902675287257
aF-3.085122711206695
aF-3.0864396215707393
aF-3.0873100417985757
aF-3.0869848956130443
aF-3.087243234954138
aF-3.074792415673753
aF-3.0703645060156832
aF-3.0659549197179015
aF-3.0699938822855253
aF-3.0691715460577944
aF-3.066945849055144
aF-3.0655900457618563
aF-3.063885834969888
aF-3.0635168010236296
aF-3.062497220931567
aF-3.0632321491071246
aF-3.0627847402800827
aF-3.064070239681587
aF-3.04995298557025
aF-3.0217543077675226
aF-3.0077443086872493
aF-2.993790940083831
aF-2.9819826746519333
aF-2.968721291442553
aF-2.9846295687115774
aF-2.980627223244677
aF-2.9784811082598712
aF-2.9756978340215188
aF-2.974922326400358
aF-2.975797088066797
aF-2.9763407773421884
aF-2.976132261258138
aF-2.975923656749651
aF-2.976183760392564
aF-2.977404843681696
aF-2.9778758893633133
aF-2.9773342607497524
aF-2.9780173922469197
aF-2.978098266852183
aF-2.978317950642687
aF-2.9775971730524016
aF-2.977069984418628
aF-2.976785617782502
aF-2.9776048442130794
aF-2.9777207163939376
aF-2.977997791394392
aF-2.9785099210694113
aF-2.9788373541390887
aF-2.9768172893628804
aF-2.9763014773743723
aF-2.975386062768372
aF-2.9747379713647955
aF-2.9761165461233188
aF-2.9767479766486264
aF-2.9769984540260626
aF-2.9773197064497685
aF-2.9670940524670972
aF-2.963149698943414
aF-2.962293130602051
aF-2.969194777946573
aF-2.9704608115622144
aF-2.9673397864733264
aF-2.965707074622701
aF-2.965340427955998
aF-2.964723523462366
aF-2.9649527783909226
aF-2.9780574974949694
aF-2.9842244929036346
aF-2.9877165738776417
aF-2.989213123261411
aF-2.99288667244413
aF-2.9930798984724447
aF-2.9956492759432254
aF-2.986258036080826
aF-2.985593248021002
aF-2.987903167368562
aF-2.988972173278158
aF-2.989403893485018
aF-2.991512179371063
aF-2.9903352139088195
aF-2.9898383422645454
aF-2.989732031066618
aF-2.9900653623699567
aF-2.9896316959109903
aF-2.989718455578839
aF-2.989687574312739
aF-2.990491896948439
aF-2.989513518839503
aF-2.9892730484582715
aF-2.9894023724635526
aF-2.989282746375794
aF-2.9899200067698897
aF-2.988887596176053
aF-2.988567049996175
aF-2.9899366493990405
aF-2.9901180577581594
aF-2.990338559640048
aF-2.990669419539537
aF-2.9901411716109028
aF-2.990026696709853
aF-2.9891862045549003
aF-2.988805741086588
aF-2.9884248526819457
aF-2.989090696347779
aF-2.9889517778020895
aF-3.0067675259388897
aF-3.001808939605135
aF-3.013832752513551
aF-3.0202928815812387
aF-3.008712914753589
aF-3.010151221098868
aF-3.0106541377408966
aF-3.011222109830596
aF-3.012683649080003
aF-3.0151905144643125
aF-3.0306399126268153
aF-3.0390621889919816
aF-3.081698533681846
aF-3.102824017025708
aF-3.1068188130724264
aF-3.121692208844298
aF-3.122544206007011
aF-3.1215172962976045
aF-3.126635760919981
aF-3.12720093817161
aF-3.130663678052953
aF-3.129803031358747
aF-3.1272073387544648
aF-3.1274277109864252
aF-3.12795322054065
aF3.1178655963952666
aF3.090795161601309
aF3.0644542751581225
aF3.04392097409861
aF2.9819676511269426
aF2.945023271715009
aF2.9509134224782687
aF2.9643504888569443
aF2.954243741755923
aF2.9417698622439947
aF2.9308715916531494
aF2.9459685441758516
aF2.941532271896124
aF2.937811513647244
aF2.948428230067525
aF2.9378095679001226
aF2.9450994409649307
aF2.946638860670884
aF2.9448874389533453
aF2.943338210947289
aF2.9419961936029146
aF2.9411403991079523
aF2.9402845532640876
aF2.942026477291116
aF2.9415144796733497
aF2.9412314309845424
aF2.9410893436117465
aF2.941238225658201
aF2.9407706736512544
aF2.94050847038777
aF2.941565047705746
aF2.943178609264991
aF2.942974280888818
aF2.9432984507406434
aF2.9431180800663745
aF2.9423967194724767
aF2.954057741041384
aF2.9594643295637812
aF2.9686759152849227
aF2.991089465609159
aF3.0017126651705337
aF3.013699412986725
aF3.0080476543996726
aF3.001830513840542
aF3.002475408829605
aF3.005809141646976
aF3.007786858820805
aF3.009514407047249
aF3.0106681066908414
aF3.0122071699717674
aF2.9993526864247366
aF3.0095211393615626
aF3.0113985754938035
aF3.010831292911864
aF3.0119115962388476
aF3.0373072914557984
aF3.0449780134774764
aF3.052648674141355
aF3.0713527030125936
aF3.080296286526155
aF3.090254487955519
aF3.0846717830261543
aF3.087272972086876
aF3.090852510010014
aF3.090807784540141
aF3.0906099023975373
aF3.091880356533795
aF3.0894954734079234
aF3.0895660972499313
aF3.08966418300547
aF3.0887519291946437
aF3.0885158177029646
aF3.0866406132552267
aF3.085913361707905
aF3.0849766646170793
aF3.0841848650328543
aF3.0842917133633856
aF3.084652857305243
aF3.084404697356608
aF3.0856536729986908
aF3.0869095799757584
aF3.10279808434735
aF3.1215257753111807
aF3.1338716974444365
aF-3.137539416166946
aF-3.125427945456959
aF-3.127056857977069
aF-3.1222034970553794
aF-3.115733959030304
aF-3.1207265375796123
aF-3.1185350586649574
aF-3.1287421806344264
aF-3.131247005200437
aF-3.116842022408027
aF-3.1253489292330285
aF-3.12656934221176
aF-3.1104281710235844
aF-3.0749040424704916
aF-3.0451905737664373
aF-3.0222407700914764
aF-3.000001776662868
aF-2.977300252505057
aF-2.9378282043650654
aF-2.898193070335854
aF-2.8650765789638157
aF-2.8705677385024786
aF-2.8518626786759627
aF-2.8614293198051355
aF-2.8521562257083515
aF-2.842043848925789
aF-2.8325203001876686
aF-2.811894515606111
aF-2.7461007223384013
aF-2.7120458287621765
aF-2.692854580193655
aF-2.664347610261385
aF-2.6524343928817995
aF-2.6294595651914716
aF-2.624047557354013
aF-2.606301555808776
aF-2.6292885175258793
aF-2.6245264889106728
aF-2.603245442740608
aF-2.5912513399214143
aF-2.5792515005938985
aF-2.563612765388977
aF-2.5631962472249437
aF-2.554089141792238
aF-2.5625284385362095
aF-2.5617117090124544
aF-2.5587191721777938
aF-2.5411908954434916
aF-2.5158814301264334
aF-2.4997467050039006
aF-2.4841463919334617
aF-2.482258315047191
aF-2.474029861118793
aF-2.4642777087956156
aF-2.4719528650141998
aF-2.46678979272814
aF-2.449469065393888
aF-2.439106933240656
aF-2.4138567919114653
aF-2.3866403453610685
aF-2.3662986093681875
aF-2.3104200177462735
aF-2.292182419814694
aF-2.265518750650199
aF-2.235382821694976
aF-2.207035636040065
aF-2.2118862160067763
aF-2.2106444185468197
aF-2.2108972640184676
aF-2.2054621356320574
aF-2.2143907065448274
aF-2.201590051253808
aF-2.1962731550053576
aF-2.2078045808183835
aF-2.196623192001179
aF-2.179299558858844
aF-2.168909801261755
aF-2.141605345270123
aF-2.097500586752214
aF-2.0700464092317645
aF-2.0577370029464173
aF-2.039182699370592
aF-2.0179840842245245
aF-1.9978334784471268
aF-2.020098242716192
aF-2.0143697235387776
aF-2.007758118158273
aF-2.016382189265349
aF-2.0146951325188045
aF-2.013953056812338
aF-2.013856411960636
aF-2.012936857811423
aF-1.9997952754687007
aF-1.994864190634241
aF-1.9718865214189256
aF-1.9348097033207758
aF-1.8893269197928069
aF-1.8716059706549906
aF-1.8472512189679509
aF-1.786236677882155
aF-1.7859966168044985
aF-1.763392281770842
aF-1.7254200049519375
aF-1.726711254805064
aF-1.72127273156488
aF-1.7100237400100362
aF-1.7017152653543615
aF-1.6914974035534607
aF-1.6812805428887734
aF-1.6710624767743603
aF-1.6608491098707445
aF-1.650637438769285
aF-1.6404178811662276
aF-1.630203206656129
aF-1.6199857943449565
aF-1.609775594300791
aF-1.5995597143409659
aF-1.589346429162755
aF-1.5791281383034779
aF-1.5689137906949995
aF-1.5586983806562538
aF-1.5484773111332006
aF-1.538261472036078
aF-1.5280514150113713
aF-1.517830549801831
aF-1.507612790157687
aF-1.4974009760367688
aF-1.4871835841569483
aF-1.47697397662197
aF-1.4667528458048629
aF-1.4565355969445015
aF-1.4463186954171114
aF-1.4361053285134953
aF-1.4258821954239616
aF-1.4156709738122308
aF-1.4054571369875353
aF-1.3952442604363497
aF-1.3850271750267984
aF-1.374815238317773
aF-1.3645940870693143
aF-1.354385623690009
aF-1.3441637777756064
aF-1.3339463858957856
aF-1.3237330189921694
aF-1.3135210618517927
aF-1.3032950275103752
aF-1.2930897309905196
aF-1.282870234681516
aF-1.2726577258946543
aF-1.2624386382126762
aF-1.2522278252279715
aF-1.2420004015546666
aF-1.2317900176283387
aF-1.2215822489149772
aF-1.2113658377400185
aF-1.20114501339318
aF-1.190926599945795
aF-1.1807173397437891
aF-1.170491857048856
aF-1.160288869271697
aF-1.1500587282286698
aF-1.1398512251228745
aF-1.1296270500344248
aF-1.1194170951664741
aF-1.1092028292834013
aF-1.0989845588554752
aF-1.0887702929724024
aF-1.0785600724968853
aF-1.0683395954830195
aF-1.0581183012151016
aF-1.0479030750585183
aF-1.037693324504081
as.